Component: ARM Compiler 5.06 update 6 (build 750) Tool: armlink [4d35ed]

==============================================================================

Section Cross References

    main.o(i.app_error_fault_handler) refers to main.o(i.on_error) for on_error
    main.o(i.app_error_handler) refers to main.o(i.on_error) for on_error
    main.o(i.app_error_handler_bare) refers to main.o(i.on_error) for on_error
    main.o(i.dfu_observer) refers to boards.o(i.bsp_board_init) for bsp_board_init
    main.o(i.dfu_observer) refers to boards.o(i.bsp_board_led_on) for bsp_board_led_on
    main.o(i.dfu_observer) refers to boards.o(i.bsp_board_led_off) for bsp_board_led_off
    main.o(i.main) refers to nrf_bootloader_info.o(i.nrf_bootloader_mbr_addrs_populate) for nrf_bootloader_mbr_addrs_populate
    main.o(i.main) refers to nrf_bootloader_app_start_final.o(i.nrf_bootloader_flash_protect) for nrf_bootloader_flash_protect
    main.o(i.main) refers to nrf_bootloader.o(i.nrf_bootloader_init) for nrf_bootloader_init
    main.o(i.main) refers to main.o(i.on_error) for on_error
    main.o(i.main) refers to main.o(i.dfu_observer) for dfu_observer
    boards.o(i.bsp_board_button_idx_to_pin) refers to boards.o(.constdata) for .constdata
    boards.o(i.bsp_board_button_state_get) refers to boards.o(.constdata) for .constdata
    boards.o(i.bsp_board_init) refers to boards.o(i.nrf_gpio_cfg) for nrf_gpio_cfg
    boards.o(i.bsp_board_init) refers to boards.o(i.bsp_board_leds_off) for bsp_board_leds_off
    boards.o(i.bsp_board_init) refers to boards.o(.constdata) for .constdata
    boards.o(i.bsp_board_led_idx_to_pin) refers to boards.o(.constdata) for .constdata
    boards.o(i.bsp_board_led_invert) refers to boards.o(.constdata) for .constdata
    boards.o(i.bsp_board_led_off) refers to boards.o(i.nrf_gpio_pin_write) for nrf_gpio_pin_write
    boards.o(i.bsp_board_led_off) refers to boards.o(.constdata) for .constdata
    boards.o(i.bsp_board_led_on) refers to boards.o(i.nrf_gpio_pin_write) for nrf_gpio_pin_write
    boards.o(i.bsp_board_led_on) refers to boards.o(.constdata) for .constdata
    boards.o(i.bsp_board_led_state_get) refers to boards.o(.constdata) for .constdata
    boards.o(i.bsp_board_leds_off) refers to boards.o(i.bsp_board_led_off) for bsp_board_led_off
    boards.o(i.bsp_board_leds_on) refers to boards.o(i.bsp_board_led_on) for bsp_board_led_on
    boards.o(i.bsp_board_pin_to_button_idx) refers to boards.o(.constdata) for .constdata
    boards.o(i.bsp_board_pin_to_led_idx) refers to boards.o(.constdata) for .constdata
    ble_srv_common.o(i.ble_srv_ascii_to_utf8) refers to strlen.o(.text) for strlen
    ble_srv_common.o(i.characteristic_add) refers to ble_srv_common.o(i.set_security_req) for set_security_req
    ble_srv_common.o(i.characteristic_add) refers to memseta.o(.text) for __aeabi_memclr4
    ble_srv_common.o(i.descriptor_add) refers to memseta.o(.text) for __aeabi_memclr4
    ble_srv_common.o(i.descriptor_add) refers to ble_srv_common.o(i.set_security_req) for set_security_req
    nrf_bootloader.o(i.boot_validate) refers to nrf_dfu_validation.o(i.nrf_dfu_validation_boot_validate) for nrf_dfu_validation_boot_validate
    nrf_bootloader.o(i.bootloader_reset) refers to nrf_dfu_settings.o(i.nrf_dfu_settings_backup) for nrf_dfu_settings_backup
    nrf_bootloader.o(i.bootloader_reset) refers to nrf_bootloader.o(i.do_reset) for do_reset
    nrf_bootloader.o(i.bootloader_reset) refers to nrf_bootloader.o(.data) for .data
    nrf_bootloader.o(i.dfu_enter_check) refers to nrf_bootloader.o(i.boot_validate) for boot_validate
    nrf_bootloader.o(i.dfu_enter_check) refers to nrf_dfu_utils.o(i.nrf_dfu_bank0_start_addr) for nrf_dfu_bank0_start_addr
    nrf_bootloader.o(i.dfu_enter_check) refers to nrf_bootloader.o(i.nrf_power_gpregret_get) for nrf_power_gpregret_get
    nrf_bootloader.o(i.dfu_enter_check) refers to nrf_dfu_settings.o(.bss) for s_dfu_settings
    nrf_bootloader.o(i.dfu_observer) refers to nrf_bootloader_dfu_timers.o(i.nrf_bootloader_dfu_inactivity_timer_restart) for nrf_bootloader_dfu_inactivity_timer_restart
    nrf_bootloader.o(i.dfu_observer) refers to nrf_bootloader.o(i.bootloader_reset) for bootloader_reset
    nrf_bootloader.o(i.dfu_observer) refers to nrf_dfu_settings.o(i.nrf_dfu_settings_reinit) for nrf_dfu_settings_reinit
    nrf_bootloader.o(i.dfu_observer) refers to nrf_bootloader.o(i.inactivity_timeout) for inactivity_timeout
    nrf_bootloader.o(i.dfu_observer) refers to nrf_bootloader.o(.data) for .data
    nrf_bootloader.o(i.flash_write_callback) refers to nrf_bootloader.o(.data) for .data
    nrf_bootloader.o(i.inactivity_timeout) refers to nrf_bootloader.o(i.bootloader_reset) for bootloader_reset
    nrf_bootloader.o(i.nrf_bootloader_init) refers to nrf_dfu_settings.o(i.nrf_dfu_settings_init) for nrf_dfu_settings_init
    nrf_bootloader.o(i.nrf_bootloader_init) refers to nrf_dfu_validation.o(i.nrf_dfu_validation_init) for nrf_dfu_validation_init
    nrf_bootloader.o(i.nrf_bootloader_init) refers to nrf_dfu_validation.o(i.nrf_dfu_validation_init_cmd_present) for nrf_dfu_validation_init_cmd_present
    nrf_bootloader.o(i.nrf_bootloader_init) refers to nrf_dfu_validation.o(i.nrf_dfu_validation_init_cmd_execute) for nrf_dfu_validation_init_cmd_execute
    nrf_bootloader.o(i.nrf_bootloader_init) refers to nrf_dfu_validation.o(i.nrf_dfu_validation_prevalidate) for nrf_dfu_validation_prevalidate
    nrf_bootloader.o(i.nrf_bootloader_init) refers to nrf_dfu_validation.o(i.nrf_dfu_validation_activation_prepare) for nrf_dfu_validation_activation_prepare
    nrf_bootloader.o(i.nrf_bootloader_init) refers to nrf_dfu_settings.o(i.nrf_dfu_settings_write_and_backup) for nrf_dfu_settings_write_and_backup
    nrf_bootloader.o(i.nrf_bootloader_init) refers to nrf_bootloader_fw_activation.o(i.nrf_bootloader_fw_activate) for nrf_bootloader_fw_activate
    nrf_bootloader.o(i.nrf_bootloader_init) refers to nrf_bootloader.o(i.dfu_enter_check) for dfu_enter_check
    nrf_bootloader.o(i.nrf_bootloader_init) refers to nrf_bootloader_wdt.o(i.nrf_bootloader_wdt_init) for nrf_bootloader_wdt_init
    nrf_bootloader.o(i.nrf_bootloader_init) refers to app_scheduler.o(i.app_sched_init) for app_sched_init
    nrf_bootloader.o(i.nrf_bootloader_init) refers to main.o(i.app_error_handler_bare) for app_error_handler_bare
    nrf_bootloader.o(i.nrf_bootloader_init) refers to nrf_bootloader.o(i.nrf_power_gpregret_get) for nrf_power_gpregret_get
    nrf_bootloader.o(i.nrf_bootloader_init) refers to nrf_bootloader.o(i.bootloader_reset) for bootloader_reset
    nrf_bootloader.o(i.nrf_bootloader_init) refers to nrf_dfu_settings.o(i.nrf_dfu_settings_write) for nrf_dfu_settings_write
    nrf_bootloader.o(i.nrf_bootloader_init) refers to nrf_bootloader.o(i.nrf_dfu_init_user) for nrf_dfu_init_user
    nrf_bootloader.o(i.nrf_bootloader_init) refers to nrf_bootloader_dfu_timers.o(i.nrf_bootloader_dfu_inactivity_timer_restart) for nrf_bootloader_dfu_inactivity_timer_restart
    nrf_bootloader.o(i.nrf_bootloader_init) refers to nrf_dfu.o(i.nrf_dfu_init) for nrf_dfu_init
    nrf_bootloader.o(i.nrf_bootloader_init) refers to nrf_bootloader_wdt.o(i.nrf_bootloader_wdt_feed) for nrf_bootloader_wdt_feed
    nrf_bootloader.o(i.nrf_bootloader_init) refers to app_scheduler.o(i.app_sched_execute) for app_sched_execute
    nrf_bootloader.o(i.nrf_bootloader_init) refers to nrf_dfu_settings_svci.o(i.nrf_dfu_settings_additional_erase) for nrf_dfu_settings_additional_erase
    nrf_bootloader.o(i.nrf_bootloader_init) refers to nrf_dfu_settings.o(i.nrf_dfu_settings_backup) for nrf_dfu_settings_backup
    nrf_bootloader.o(i.nrf_bootloader_init) refers to nrf_bootloader_app_start.o(i.nrf_bootloader_app_start) for nrf_bootloader_app_start
    nrf_bootloader.o(i.nrf_bootloader_init) refers to nrf_bootloader.o(.data) for .data
    nrf_bootloader.o(i.nrf_bootloader_init) refers to nrf_dfu_settings.o(.bss) for s_dfu_settings
    nrf_bootloader.o(i.nrf_bootloader_init) refers to nrf_bootloader.o(i.flash_write_callback) for flash_write_callback
    nrf_bootloader.o(i.nrf_bootloader_init) refers to nrf_bootloader.o(.bss) for .bss
    nrf_bootloader.o(i.nrf_bootloader_init) refers to nrf_bootloader.o(i.inactivity_timeout) for inactivity_timeout
    nrf_bootloader.o(i.nrf_bootloader_init) refers to nrf_bootloader.o(i.dfu_observer) for dfu_observer
    nrf_bootloader_app_start.o(i.nrf_bootloader_app_start) refers to nrf_dfu_mbr.o(i.nrf_dfu_mbr_irq_forward_address_set) for nrf_dfu_mbr_irq_forward_address_set
    nrf_bootloader_app_start.o(i.nrf_bootloader_app_start) refers to nrf_bootloader_app_start_final.o(i.nrf_bootloader_app_start_final) for nrf_bootloader_app_start_final
    nrf_bootloader_app_start_final.o(i.nrf_bootloader_app_start_final) refers to nrf_bootloader_app_start_final.o(i.nrf_bootloader_flash_protect) for nrf_bootloader_flash_protect
    nrf_bootloader_app_start_final.o(i.nrf_bootloader_app_start_final) refers to main.o(i.app_error_handler_bare) for app_error_handler_bare
    nrf_bootloader_app_start_final.o(i.nrf_bootloader_app_start_final) refers to nrf_dfu_utils.o(i.nrf_dfu_bank0_start_addr) for nrf_dfu_bank0_start_addr
    nrf_bootloader_app_start_final.o(i.nrf_bootloader_app_start_final) refers to nrf_dfu_settings.o(.bss) for s_dfu_settings
    nrf_bootloader_app_start_final.o(i.nrf_bootloader_flash_protect) refers to nrf_bootloader_app_start_final.o(.data) for .data
    nrf_bootloader_dfu_timers.o(i.RTC1_IRQHandler) refers to nrf_bootloader_dfu_timers.o(i.nrf_rtc_event_clear) for nrf_rtc_event_clear
    nrf_bootloader_dfu_timers.o(i.RTC1_IRQHandler) refers to nrf_bootloader_dfu_timers.o(i.timer_stop) for timer_stop
    nrf_bootloader_dfu_timers.o(i.RTC1_IRQHandler) refers to nrf_bootloader_dfu_timers.o(i.timer_activate) for timer_activate
    nrf_bootloader_dfu_timers.o(i.RTC1_IRQHandler) refers to nrf_bootloader_dfu_timers.o(.data) for .data
    nrf_bootloader_dfu_timers.o(i.nrf_bootloader_dfu_inactivity_timer_restart) refers to nrf_bootloader_dfu_timers.o(i.timer_stop) for timer_stop
    nrf_bootloader_dfu_timers.o(i.nrf_bootloader_dfu_inactivity_timer_restart) refers to nrf_bootloader_dfu_timers.o(i.timer_start) for timer_start
    nrf_bootloader_dfu_timers.o(i.nrf_bootloader_dfu_inactivity_timer_restart) refers to nrf_bootloader_dfu_timers.o(.data) for .data
    nrf_bootloader_dfu_timers.o(i.nrf_bootloader_dfu_timer_counter_get) refers to nrf_bootloader_dfu_timers.o(.data) for .data
    nrf_bootloader_dfu_timers.o(i.nrf_bootloader_wdt_feed_timer_start) refers to nrf_bootloader_dfu_timers.o(i.timer_start) for timer_start
    nrf_bootloader_dfu_timers.o(i.nrf_bootloader_wdt_feed_timer_start) refers to nrf_bootloader_dfu_timers.o(.data) for .data
    nrf_bootloader_dfu_timers.o(i.timer_activate) refers to nrf_bootloader_dfu_timers.o(i.nrf_rtc_event_clear) for nrf_rtc_event_clear
    nrf_bootloader_dfu_timers.o(i.timer_activate) refers to nrf_bootloader_dfu_timers.o(.constdata) for .constdata
    nrf_bootloader_dfu_timers.o(i.timer_init) refers to nrf_bootloader_dfu_timers.o(i.nrf_rtc_event_clear) for nrf_rtc_event_clear
    nrf_bootloader_dfu_timers.o(i.timer_init) refers to nrf_bootloader_dfu_timers.o(.data) for .data
    nrf_bootloader_dfu_timers.o(i.timer_start) refers to nrf_bootloader_dfu_timers.o(i.timer_init) for timer_init
    nrf_bootloader_dfu_timers.o(i.timer_start) refers to nrf_bootloader_dfu_timers.o(i.timer_activate) for timer_activate
    nrf_bootloader_fw_activation.o(i.app_activate) refers to nrf_dfu_utils.o(i.nrf_dfu_bank0_start_addr) for nrf_dfu_bank0_start_addr
    nrf_bootloader_fw_activation.o(i.app_activate) refers to nrf_bootloader_fw_activation.o(i.image_copy) for image_copy
    nrf_bootloader_fw_activation.o(i.app_activate) refers to crc32.o(i.crc32_compute) for crc32_compute
    nrf_bootloader_fw_activation.o(i.app_activate) refers to nrf_dfu_settings.o(.bss) for s_dfu_settings
    nrf_bootloader_fw_activation.o(i.bl_activate) refers to nrf_dfu_utils.o(i.nrf_dfu_bank1_start_addr) for nrf_dfu_bank1_start_addr
    nrf_bootloader_fw_activation.o(i.bl_activate) refers to memcmp.o(.text) for memcmp
    nrf_bootloader_fw_activation.o(i.bl_activate) refers to nrf_bootloader_wdt.o(i.nrf_bootloader_wdt_feed) for nrf_bootloader_wdt_feed
    nrf_bootloader_fw_activation.o(i.bl_activate) refers to nrf_dfu_mbr.o(i.nrf_dfu_mbr_copy_bl) for nrf_dfu_mbr_copy_bl
    nrf_bootloader_fw_activation.o(i.bl_activate) refers to nrf_dfu_settings.o(.bss) for s_dfu_settings
    nrf_bootloader_fw_activation.o(i.flash_write_callback) refers to nrf_bootloader_fw_activation.o(.data) for .data
    nrf_bootloader_fw_activation.o(i.image_copy) refers to nrf_bootloader_wdt.o(i.nrf_bootloader_wdt_init) for nrf_bootloader_wdt_init
    nrf_bootloader_fw_activation.o(i.image_copy) refers to nrf_dfu_flash.o(i.nrf_dfu_flash_erase) for nrf_dfu_flash_erase
    nrf_bootloader_fw_activation.o(i.image_copy) refers to nrf_dfu_flash.o(i.nrf_dfu_flash_store) for nrf_dfu_flash_store
    nrf_bootloader_fw_activation.o(i.image_copy) refers to nrf_dfu_settings.o(i.nrf_dfu_settings_write_and_backup) for nrf_dfu_settings_write_and_backup
    nrf_bootloader_fw_activation.o(i.image_copy) refers to nrf_dfu_settings.o(.bss) for s_dfu_settings
    nrf_bootloader_fw_activation.o(i.nrf_bootloader_fw_activate) refers to nrf_bootloader_fw_activation.o(i.app_activate) for app_activate
    nrf_bootloader_fw_activation.o(i.nrf_bootloader_fw_activate) refers to nrf_bootloader_fw_activation.o(i.sd_activate) for sd_activate
    nrf_bootloader_fw_activation.o(i.nrf_bootloader_fw_activate) refers to nrf_bootloader_fw_activation.o(i.bl_activate) for bl_activate
    nrf_bootloader_fw_activation.o(i.nrf_bootloader_fw_activate) refers to nrf_dfu_utils.o(i.nrf_dfu_bank_invalidate) for nrf_dfu_bank_invalidate
    nrf_bootloader_fw_activation.o(i.nrf_bootloader_fw_activate) refers to nrf_dfu_settings.o(i.nrf_dfu_settings_write_and_backup) for nrf_dfu_settings_write_and_backup
    nrf_bootloader_fw_activation.o(i.nrf_bootloader_fw_activate) refers to nrf_dfu_settings.o(.bss) for s_dfu_settings
    nrf_bootloader_fw_activation.o(i.nrf_bootloader_fw_activate) refers to nrf_bootloader_fw_activation.o(.data) for .data
    nrf_bootloader_fw_activation.o(i.nrf_bootloader_fw_activate) refers to nrf_bootloader_fw_activation.o(i.flash_write_callback) for flash_write_callback
    nrf_bootloader_fw_activation.o(i.sd_activate) refers to nrf_dfu_utils.o(i.nrf_dfu_softdevice_start_address) for nrf_dfu_softdevice_start_address
    nrf_bootloader_fw_activation.o(i.sd_activate) refers to nrf_bootloader_fw_activation.o(i.image_copy) for image_copy
    nrf_bootloader_fw_activation.o(i.sd_activate) refers to nrf_dfu_settings.o(i.nrf_dfu_settings_write_and_backup) for nrf_dfu_settings_write_and_backup
    nrf_bootloader_fw_activation.o(i.sd_activate) refers to nrf_dfu_settings.o(.bss) for s_dfu_settings
    nrf_bootloader_info.o(i.nrf_bootloader_debug_port_disable) refers to nrf_nvmc.o(i.nrf_nvmc_write_word) for nrf_nvmc_write_word
    nrf_bootloader_info.o(i.nrf_bootloader_debug_port_disable) refers to nrf_bootloader_info.o(i.__NVIC_SystemReset) for __NVIC_SystemReset
    nrf_bootloader_info.o(i.nrf_bootloader_mbr_addrs_populate) refers to nrf_nvmc.o(i.nrf_nvmc_write_word) for nrf_nvmc_write_word
    nrf_bootloader_wdt.o(i.nrf_bootloader_wdt_feed) refers to nrf_bootloader_wdt.o(i.nrf_wdt_started) for nrf_wdt_started
    nrf_bootloader_wdt.o(i.nrf_bootloader_wdt_feed) refers to nrf_bootloader_wdt.o(i.wdt_feed) for wdt_feed
    nrf_bootloader_wdt.o(i.nrf_bootloader_wdt_init) refers to nrf_bootloader_wdt.o(i.nrf_wdt_started) for nrf_wdt_started
    nrf_bootloader_wdt.o(i.nrf_bootloader_wdt_init) refers to nrf_bootloader_wdt.o(i.wdt_feed) for wdt_feed
    nrf_bootloader_wdt.o(i.nrf_bootloader_wdt_init) refers to nrf_bootloader_dfu_timers.o(i.nrf_bootloader_wdt_feed_timer_start) for nrf_bootloader_wdt_feed_timer_start
    nrf_bootloader_wdt.o(i.nrf_bootloader_wdt_init) refers to nrf_bootloader_wdt.o(.data) for .data
    nrf_bootloader_wdt.o(i.nrf_bootloader_wdt_init) refers to nrf_bootloader_wdt.o(i.wdt_feed_timer_handler) for wdt_feed_timer_handler
    nrf_bootloader_wdt.o(i.wdt_feed) refers to nrf_bootloader_wdt.o(i.nrf_wdt_started) for nrf_wdt_started
    nrf_bootloader_wdt.o(i.wdt_feed_timer_handler) refers to nrf_bootloader_wdt.o(i.wdt_feed) for wdt_feed
    nrf_crypto_ecc.o(i.nrf_crypto_ecc_curve_info_get) refers to nrf_crypto_ecc.o(i.nrf_crypto_internal_ecc_key_input_check) for nrf_crypto_internal_ecc_key_input_check
    nrf_crypto_ecc.o(i.nrf_crypto_ecc_key_pair_generate) refers to nrf_crypto_ecc.o(i.nrf_crypto_internal_ecc_key_output_prepare) for nrf_crypto_internal_ecc_key_output_prepare
    nrf_crypto_ecc.o(i.nrf_crypto_ecc_key_pair_generate) refers to micro_ecc_backend_ecc.o(i.nrf_crypto_backend_micro_ecc_key_pair_generate) for nrf_crypto_backend_micro_ecc_key_pair_generate
    nrf_crypto_ecc.o(i.nrf_crypto_ecc_private_key_free) refers to nrf_crypto_ecc.o(i.nrf_crypto_internal_ecc_key_input_check) for nrf_crypto_internal_ecc_key_input_check
    nrf_crypto_ecc.o(i.nrf_crypto_ecc_private_key_from_raw) refers to nrf_crypto_ecc.o(i.nrf_crypto_internal_ecc_key_output_prepare) for nrf_crypto_internal_ecc_key_output_prepare
    nrf_crypto_ecc.o(i.nrf_crypto_ecc_private_key_from_raw) refers to nrf_crypto_ecc.o(i.nrf_crypto_internal_ecc_raw_input_check) for nrf_crypto_internal_ecc_raw_input_check
    nrf_crypto_ecc.o(i.nrf_crypto_ecc_private_key_from_raw) refers to micro_ecc_backend_ecc.o(i.nrf_crypto_backend_micro_ecc_private_key_from_raw) for nrf_crypto_backend_micro_ecc_private_key_from_raw
    nrf_crypto_ecc.o(i.nrf_crypto_ecc_private_key_to_raw) refers to nrf_crypto_ecc.o(i.nrf_crypto_internal_ecc_key_input_check) for nrf_crypto_internal_ecc_key_input_check
    nrf_crypto_ecc.o(i.nrf_crypto_ecc_private_key_to_raw) refers to nrf_crypto_ecc.o(i.nrf_crypto_internal_ecc_raw_output_prepare) for nrf_crypto_internal_ecc_raw_output_prepare
    nrf_crypto_ecc.o(i.nrf_crypto_ecc_private_key_to_raw) refers to micro_ecc_backend_ecc.o(i.nrf_crypto_backend_micro_ecc_private_key_to_raw) for nrf_crypto_backend_micro_ecc_private_key_to_raw
    nrf_crypto_ecc.o(i.nrf_crypto_ecc_public_key_calculate) refers to nrf_crypto_ecc.o(i.nrf_crypto_internal_ecc_key_input_check) for nrf_crypto_internal_ecc_key_input_check
    nrf_crypto_ecc.o(i.nrf_crypto_ecc_public_key_calculate) refers to nrf_crypto_ecc.o(i.nrf_crypto_internal_ecc_key_output_prepare) for nrf_crypto_internal_ecc_key_output_prepare
    nrf_crypto_ecc.o(i.nrf_crypto_ecc_public_key_calculate) refers to micro_ecc_backend_ecc.o(i.nrf_crypto_backend_micro_ecc_public_key_calculate) for nrf_crypto_backend_micro_ecc_public_key_calculate
    nrf_crypto_ecc.o(i.nrf_crypto_ecc_public_key_free) refers to nrf_crypto_ecc.o(i.nrf_crypto_internal_ecc_key_input_check) for nrf_crypto_internal_ecc_key_input_check
    nrf_crypto_ecc.o(i.nrf_crypto_ecc_public_key_from_raw) refers to nrf_crypto_ecc.o(i.nrf_crypto_internal_ecc_key_output_prepare) for nrf_crypto_internal_ecc_key_output_prepare
    nrf_crypto_ecc.o(i.nrf_crypto_ecc_public_key_from_raw) refers to nrf_crypto_ecc.o(i.nrf_crypto_internal_ecc_raw_input_check) for nrf_crypto_internal_ecc_raw_input_check
    nrf_crypto_ecc.o(i.nrf_crypto_ecc_public_key_from_raw) refers to micro_ecc_backend_ecc.o(i.nrf_crypto_backend_micro_ecc_public_key_from_raw) for nrf_crypto_backend_micro_ecc_public_key_from_raw
    nrf_crypto_ecc.o(i.nrf_crypto_ecc_public_key_to_raw) refers to nrf_crypto_ecc.o(i.nrf_crypto_internal_ecc_key_input_check) for nrf_crypto_internal_ecc_key_input_check
    nrf_crypto_ecc.o(i.nrf_crypto_ecc_public_key_to_raw) refers to nrf_crypto_ecc.o(i.nrf_crypto_internal_ecc_raw_output_prepare) for nrf_crypto_internal_ecc_raw_output_prepare
    nrf_crypto_ecc.o(i.nrf_crypto_ecc_public_key_to_raw) refers to micro_ecc_backend_ecc.o(i.nrf_crypto_backend_micro_ecc_public_key_to_raw) for nrf_crypto_backend_micro_ecc_public_key_to_raw
    nrf_crypto_ecdsa.o(i.nrf_crypto_ecdsa_sign) refers to nrf_crypto_ecc.o(i.nrf_crypto_internal_ecc_key_input_check) for nrf_crypto_internal_ecc_key_input_check
    nrf_crypto_ecdsa.o(i.nrf_crypto_ecdsa_sign) refers to nrf_crypto_ecc.o(i.nrf_crypto_internal_ecc_raw_output_prepare) for nrf_crypto_internal_ecc_raw_output_prepare
    nrf_crypto_ecdsa.o(i.nrf_crypto_ecdsa_sign) refers to micro_ecc_backend_ecdsa.o(i.nrf_crypto_backend_micro_ecc_sign) for nrf_crypto_backend_micro_ecc_sign
    nrf_crypto_ecdsa.o(i.nrf_crypto_ecdsa_verify) refers to nrf_crypto_ecc.o(i.nrf_crypto_internal_ecc_key_input_check) for nrf_crypto_internal_ecc_key_input_check
    nrf_crypto_ecdsa.o(i.nrf_crypto_ecdsa_verify) refers to nrf_crypto_ecc.o(i.nrf_crypto_internal_ecc_raw_input_check) for nrf_crypto_internal_ecc_raw_input_check
    nrf_crypto_ecdsa.o(i.nrf_crypto_ecdsa_verify) refers to micro_ecc_backend_ecdsa.o(i.nrf_crypto_backend_micro_ecc_verify) for nrf_crypto_backend_micro_ecc_verify
    nrf_crypto_hash.o(i.nrf_crypto_hash_calculate) refers to nrf_crypto_hash.o(i.nrf_crypto_hash_init) for nrf_crypto_hash_init
    nrf_crypto_hash.o(i.nrf_crypto_hash_calculate) refers to nrf_crypto_hash.o(i.nrf_crypto_hash_update) for nrf_crypto_hash_update
    nrf_crypto_hash.o(i.nrf_crypto_hash_calculate) refers to nrf_crypto_hash.o(i.nrf_crypto_hash_finalize) for nrf_crypto_hash_finalize
    nrf_crypto_hash.o(i.nrf_crypto_hash_finalize) refers to nrf_crypto_hash.o(i.verify_context) for verify_context
    nrf_crypto_hash.o(i.nrf_crypto_hash_update) refers to nrf_crypto_hash.o(i.verify_context) for verify_context
    nrf_crypto_init.o(i.nrf_crypto_init) refers to nrf_crypto_init.o(.data) for .data
    nrf_crypto_init.o(i.nrf_crypto_is_initialized) refers to nrf_crypto_init.o(.data) for .data
    nrf_crypto_init.o(i.nrf_crypto_is_initializing) refers to nrf_crypto_init.o(.data) for .data
    nrf_crypto_init.o(i.nrf_crypto_uninit) refers to nrf_crypto_init.o(.data) for .data
    nrf_crypto_shared.o(i.nrf_crypto_internal_double_swap_endian) refers to nrf_crypto_shared.o(i.nrf_crypto_internal_swap_endian) for nrf_crypto_internal_swap_endian
    nrf_crypto_shared.o(i.nrf_crypto_internal_double_swap_endian_in_place) refers to nrf_crypto_shared.o(i.nrf_crypto_internal_swap_endian_in_place) for nrf_crypto_internal_swap_endian_in_place
    nrf_sw_backend_hash.o(i.nrf_sw_backend_hash_sha256_finalize) refers to sha256.o(i.sha256_final) for sha256_final
    nrf_sw_backend_hash.o(i.nrf_sw_backend_hash_sha256_init) refers to sha256.o(i.sha256_init) for sha256_init
    nrf_sw_backend_hash.o(i.nrf_sw_backend_hash_sha256_update) refers to sha256.o(i.sha256_update) for sha256_update
    nrf_sw_backend_hash.o(.constdata) refers to nrf_sw_backend_hash.o(i.nrf_sw_backend_hash_sha256_init) for nrf_sw_backend_hash_sha256_init
    nrf_sw_backend_hash.o(.constdata) refers to nrf_sw_backend_hash.o(i.nrf_sw_backend_hash_sha256_update) for nrf_sw_backend_hash_sha256_update
    nrf_sw_backend_hash.o(.constdata) refers to nrf_sw_backend_hash.o(i.nrf_sw_backend_hash_sha256_finalize) for nrf_sw_backend_hash_sha256_finalize
    micro_ecc_backend_ecc.o(i.nrf_crypto_backend_micro_ecc_key_pair_generate) refers to micro_ecc_backend_ecc.o(i.nrf_crypto_backend_micro_ecc_curve_get) for nrf_crypto_backend_micro_ecc_curve_get
    micro_ecc_backend_ecc.o(i.nrf_crypto_backend_micro_ecc_key_pair_generate) refers to uECC.c.o(.text.uECC_set_rng) for uECC_set_rng
    micro_ecc_backend_ecc.o(i.nrf_crypto_backend_micro_ecc_key_pair_generate) refers to uECC.c.o(.text.uECC_make_key) for uECC_make_key
    micro_ecc_backend_ecc.o(i.nrf_crypto_backend_micro_ecc_key_pair_generate) refers to micro_ecc_backend_ecc.o(i.nrf_crypto_backend_micro_ecc_rng_callback) for nrf_crypto_backend_micro_ecc_rng_callback
    micro_ecc_backend_ecc.o(i.nrf_crypto_backend_micro_ecc_private_key_from_raw) refers to nrf_crypto_shared.o(i.nrf_crypto_internal_swap_endian) for nrf_crypto_internal_swap_endian
    micro_ecc_backend_ecc.o(i.nrf_crypto_backend_micro_ecc_private_key_to_raw) refers to nrf_crypto_shared.o(i.nrf_crypto_internal_swap_endian) for nrf_crypto_internal_swap_endian
    micro_ecc_backend_ecc.o(i.nrf_crypto_backend_micro_ecc_public_key_calculate) refers to micro_ecc_backend_ecc.o(i.nrf_crypto_backend_micro_ecc_curve_get) for nrf_crypto_backend_micro_ecc_curve_get
    micro_ecc_backend_ecc.o(i.nrf_crypto_backend_micro_ecc_public_key_calculate) refers to uECC.c.o(.text.uECC_compute_public_key) for uECC_compute_public_key
    micro_ecc_backend_ecc.o(i.nrf_crypto_backend_micro_ecc_public_key_from_raw) refers to nrf_crypto_shared.o(i.nrf_crypto_internal_double_swap_endian) for nrf_crypto_internal_double_swap_endian
    micro_ecc_backend_ecc.o(i.nrf_crypto_backend_micro_ecc_public_key_to_raw) refers to nrf_crypto_shared.o(i.nrf_crypto_internal_double_swap_endian) for nrf_crypto_internal_double_swap_endian
    micro_ecc_backend_ecc.o(.constdata) refers to uECC.c.o(.text.uECC_secp256r1) for uECC_secp256r1
    micro_ecc_backend_ecdh.o(i.nrf_crypto_backend_micro_ecc_ecdh_compute) refers to micro_ecc_backend_ecc.o(i.nrf_crypto_backend_micro_ecc_curve_get) for nrf_crypto_backend_micro_ecc_curve_get
    micro_ecc_backend_ecdh.o(i.nrf_crypto_backend_micro_ecc_ecdh_compute) refers to uECC.c.o(.text.uECC_valid_public_key) for uECC_valid_public_key
    micro_ecc_backend_ecdh.o(i.nrf_crypto_backend_micro_ecc_ecdh_compute) refers to uECC.c.o(.text.uECC_shared_secret) for uECC_shared_secret
    micro_ecc_backend_ecdh.o(i.nrf_crypto_backend_micro_ecc_ecdh_compute) refers to nrf_crypto_shared.o(i.nrf_crypto_internal_swap_endian_in_place) for nrf_crypto_internal_swap_endian_in_place
    micro_ecc_backend_ecdsa.o(i.nrf_crypto_backend_micro_ecc_sign) refers to micro_ecc_backend_ecc.o(i.nrf_crypto_backend_micro_ecc_curve_get) for nrf_crypto_backend_micro_ecc_curve_get
    micro_ecc_backend_ecdsa.o(i.nrf_crypto_backend_micro_ecc_sign) refers to nrf_crypto_shared.o(i.nrf_crypto_internal_swap_endian) for nrf_crypto_internal_swap_endian
    micro_ecc_backend_ecdsa.o(i.nrf_crypto_backend_micro_ecc_sign) refers to uECC.c.o(.text.uECC_set_rng) for uECC_set_rng
    micro_ecc_backend_ecdsa.o(i.nrf_crypto_backend_micro_ecc_sign) refers to uECC.c.o(.text.uECC_sign) for uECC_sign
    micro_ecc_backend_ecdsa.o(i.nrf_crypto_backend_micro_ecc_sign) refers to nrf_crypto_shared.o(i.nrf_crypto_internal_double_swap_endian_in_place) for nrf_crypto_internal_double_swap_endian_in_place
    micro_ecc_backend_ecdsa.o(i.nrf_crypto_backend_micro_ecc_sign) refers to micro_ecc_backend_ecc.o(i.nrf_crypto_backend_micro_ecc_rng_callback) for nrf_crypto_backend_micro_ecc_rng_callback
    micro_ecc_backend_ecdsa.o(i.nrf_crypto_backend_micro_ecc_verify) refers to micro_ecc_backend_ecc.o(i.nrf_crypto_backend_micro_ecc_curve_get) for nrf_crypto_backend_micro_ecc_curve_get
    micro_ecc_backend_ecdsa.o(i.nrf_crypto_backend_micro_ecc_verify) refers to nrf_crypto_shared.o(i.nrf_crypto_internal_swap_endian) for nrf_crypto_internal_swap_endian
    micro_ecc_backend_ecdsa.o(i.nrf_crypto_backend_micro_ecc_verify) refers to nrf_crypto_shared.o(i.nrf_crypto_internal_double_swap_endian) for nrf_crypto_internal_double_swap_endian
    micro_ecc_backend_ecdsa.o(i.nrf_crypto_backend_micro_ecc_verify) refers to uECC.c.o(.text.uECC_verify) for uECC_verify
    dfu-cc.pb.o(.constdata) refers to dfu-cc.pb.o(.constdata) for dfu_hash_fields
    dfu-cc.pb.o(.constdata) refers to dfu-cc.pb.o(.constdata) for dfu_init_command_is_debug_default
    dfu-cc.pb.o(.constdata) refers to dfu-cc.pb.o(.constdata) for dfu_boot_validation_fields
    dfu-cc.pb.o(.constdata) refers to dfu-cc.pb.o(.constdata) for dfu_init_command_fields
    dfu-cc.pb.o(.constdata) refers to dfu-cc.pb.o(.constdata) for dfu_command_fields
    dfu-cc.pb.o(.constdata) refers to dfu-cc.pb.o(.constdata) for dfu_command_fields
    dfu-cc.pb.o(.constdata) refers to dfu-cc.pb.o(.constdata) for dfu_signed_command_fields
    nrf_dfu.o(i.dfu_observer) refers to nrf_dfu_transport.o(i.nrf_dfu_transports_close) for nrf_dfu_transports_close
    nrf_dfu.o(i.dfu_observer) refers to nrf_dfu.o(.data) for .data
    nrf_dfu.o(i.nrf_dfu_init) refers to nrf_dfu.o(i.dfu_observer) for dfu_observer
    nrf_dfu.o(i.nrf_dfu_init) refers to nrf_dfu_transport.o(i.nrf_dfu_transports_init) for nrf_dfu_transports_init
    nrf_dfu.o(i.nrf_dfu_init) refers to nrf_dfu_req_handler.o(i.nrf_dfu_req_handler_init) for nrf_dfu_req_handler_init
    nrf_dfu.o(i.nrf_dfu_init) refers to nrf_dfu.o(.data) for .data
    nrf_dfu_ble.o(i.advertising_init) refers to nrf_dfu_ble.o(.constdata) for .constdata
    nrf_dfu_ble.o(i.advertising_init) refers to nrf_dfu_ble.o(.bss) for .bss
    nrf_dfu_ble.o(i.advertising_init) refers to nrf_dfu_ble.o(.data) for .data
    nrf_dfu_ble.o(i.advertising_start) refers to memcpya.o(.text) for __aeabi_memcpy4
    nrf_dfu_ble.o(i.advertising_start) refers to nrf_dfu_ble.o(i.advertising_init) for advertising_init
    nrf_dfu_ble.o(i.advertising_start) refers to nrf_dfu_ble.o(.constdata) for .constdata
    nrf_dfu_ble.o(i.advertising_start) refers to nrf_dfu_ble.o(.data) for .data
    nrf_dfu_ble.o(i.ble_dfu_init) refers to memcpya.o(.text) for __aeabi_memcpy4
    nrf_dfu_ble.o(i.ble_dfu_init) refers to nrf_dfu_ble.o(.data) for .data
    nrf_dfu_ble.o(i.ble_dfu_init) refers to nrf_dfu_ble.o(.constdata) for .constdata
    nrf_dfu_ble.o(i.ble_dfu_req_handler_callback) refers to memseta.o(.text) for __aeabi_memclr4
    nrf_dfu_ble.o(i.ble_dfu_req_handler_callback) refers to nrf_dfu_handling_error.o(i.ext_error_get) for ext_error_get
    nrf_dfu_ble.o(i.ble_dfu_req_handler_callback) refers to nrf_dfu_handling_error.o(i.ext_error_set) for ext_error_set
    nrf_dfu_ble.o(i.ble_dfu_req_handler_callback) refers to nrf_dfu_ble.o(i.uint32_encode) for uint32_encode
    nrf_dfu_ble.o(i.ble_dfu_req_handler_callback) refers to nrf_dfu_ble.o(i.response_send) for response_send
    nrf_dfu_ble.o(i.ble_dfu_req_handler_callback) refers to nrf_dfu_ble.o(i.response_crc_add) for response_crc_add
    nrf_dfu_ble.o(i.ble_dfu_req_handler_callback) refers to nrf_dfu_ble.o(.data) for .data
    nrf_dfu_ble.o(i.ble_dfu_transport_close) refers to nrf_sdh.o(i.nrf_sdh_disable_request) for nrf_sdh_disable_request
    nrf_dfu_ble.o(i.ble_dfu_transport_close) refers to nrf_dfu_ble.o(.data) for .data
    nrf_dfu_ble.o(i.ble_dfu_transport_close) refers to nrf_dfu_ble.o(dfu_trans) for dfu_trans
    nrf_dfu_ble.o(i.ble_dfu_transport_close) refers to nrf_dfu_ble.o(.constdata) for .constdata
    nrf_dfu_ble.o(i.ble_dfu_transport_disconnect) refers to nrf_dfu_ble.o(.data) for .data
    nrf_dfu_ble.o(i.ble_dfu_transport_init) refers to nrf_balloc.o(i.nrf_balloc_init) for nrf_balloc_init
    nrf_dfu_ble.o(i.ble_dfu_transport_init) refers to nrf_dfu_mbr.o(i.nrf_dfu_mbr_init_sd) for nrf_dfu_mbr_init_sd
    nrf_dfu_ble.o(i.ble_dfu_transport_init) refers to nrf_sdh.o(i.nrf_sdh_enable_request) for nrf_sdh_enable_request
    nrf_dfu_ble.o(i.ble_dfu_transport_init) refers to nrf_sdh_ble.o(i.nrf_sdh_ble_app_ram_start_get) for nrf_sdh_ble_app_ram_start_get
    nrf_dfu_ble.o(i.ble_dfu_transport_init) refers to nrf_sdh_ble.o(i.nrf_sdh_ble_default_cfg_set) for nrf_sdh_ble_default_cfg_set
    nrf_dfu_ble.o(i.ble_dfu_transport_init) refers to nrf_sdh_ble.o(i.nrf_sdh_ble_enable) for nrf_sdh_ble_enable
    nrf_dfu_ble.o(i.ble_dfu_transport_init) refers to nrf_dfu_settings_svci.o(i.nrf_dfu_settings_adv_name_is_valid) for nrf_dfu_settings_adv_name_is_valid
    nrf_dfu_ble.o(i.ble_dfu_transport_init) refers to nrf_dfu_settings_svci.o(i.nrf_dfu_settings_adv_name_copy) for nrf_dfu_settings_adv_name_copy
    nrf_dfu_ble.o(i.ble_dfu_transport_init) refers to nrf_dfu_ble.o(i.gap_params_init) for gap_params_init
    nrf_dfu_ble.o(i.ble_dfu_transport_init) refers to nrf_dfu_ble.o(i.ble_dfu_init) for ble_dfu_init
    nrf_dfu_ble.o(i.ble_dfu_transport_init) refers to nrf_dfu_ble.o(i.advertising_start) for advertising_start
    nrf_dfu_ble.o(i.ble_dfu_transport_init) refers to nrf_dfu_ble.o(.data) for .data
    nrf_dfu_ble.o(i.ble_dfu_transport_init) refers to nrf_dfu_ble.o(nrf_balloc) for nrf_balloc
    nrf_dfu_ble.o(i.ble_dfu_transport_init) refers to nrf_dfu_ble.o(.bss) for .bss
    nrf_dfu_ble.o(i.ble_evt_handler) refers to nrf_dfu_ble.o(i.advertising_start) for advertising_start
    nrf_dfu_ble.o(i.ble_evt_handler) refers to main.o(i.app_error_handler_bare) for app_error_handler_bare
    nrf_dfu_ble.o(i.ble_evt_handler) refers to nrf_balloc.o(i.nrf_balloc_alloc) for nrf_balloc_alloc
    nrf_dfu_ble.o(i.ble_evt_handler) refers to memcpya.o(.text) for __aeabi_memcpy
    nrf_dfu_ble.o(i.ble_evt_handler) refers to nrf_dfu_req_handler.o(i.nrf_dfu_req_handler_on_req) for nrf_dfu_req_handler_on_req
    nrf_dfu_ble.o(i.ble_evt_handler) refers to nrf_balloc.o(i.nrf_balloc_free) for nrf_balloc_free
    nrf_dfu_ble.o(i.ble_evt_handler) refers to nrf_dfu_ble.o(i.on_rw_authorize_req) for on_rw_authorize_req
    nrf_dfu_ble.o(i.ble_evt_handler) refers to nrf_dfu_ble.o(i.on_ctrl_pt_write) for on_ctrl_pt_write
    nrf_dfu_ble.o(i.ble_evt_handler) refers to nrf_dfu_ble.o(.data) for .data
    nrf_dfu_ble.o(i.ble_evt_handler) refers to nrf_dfu_ble.o(.bss) for .bss
    nrf_dfu_ble.o(i.ble_evt_handler) refers to nrf_dfu_ble.o(nrf_balloc) for nrf_balloc
    nrf_dfu_ble.o(i.ble_evt_handler) refers to nrf_dfu_ble.o(.constdata) for .constdata
    nrf_dfu_ble.o(i.gap_params_init) refers to nrf_dfu_ble.o(.data) for .data
    nrf_dfu_ble.o(i.gap_params_init) refers to nrf_dfu_ble.o(.bss) for .bss
    nrf_dfu_ble.o(i.gap_params_init) refers to nrf_dfu_ble.o(.constdata) for .constdata
    nrf_dfu_ble.o(i.on_ctrl_pt_write) refers to memcpya.o(.text) for __aeabi_memcpy4
    nrf_dfu_ble.o(i.on_ctrl_pt_write) refers to nrf_dfu_transport.o(i.nrf_dfu_transports_close) for nrf_dfu_transports_close
    nrf_dfu_ble.o(i.on_ctrl_pt_write) refers to nrf_dfu_req_handler.o(i.nrf_dfu_req_handler_on_req) for nrf_dfu_req_handler_on_req
    nrf_dfu_ble.o(i.on_ctrl_pt_write) refers to nrf_dfu_ble.o(.constdata) for .constdata
    nrf_dfu_ble.o(i.on_ctrl_pt_write) refers to nrf_dfu_ble.o(.data) for .data
    nrf_dfu_ble.o(i.on_ctrl_pt_write) refers to nrf_dfu_ble.o(dfu_trans) for dfu_trans
    nrf_dfu_ble.o(i.on_flash_write) refers to nrf_balloc.o(i.nrf_balloc_free) for nrf_balloc_free
    nrf_dfu_ble.o(i.on_flash_write) refers to nrf_dfu_ble.o(nrf_balloc) for nrf_balloc
    nrf_dfu_ble.o(i.on_rw_authorize_req) refers to ble_srv_common.o(i.ble_srv_is_notification_enabled) for ble_srv_is_notification_enabled
    nrf_dfu_ble.o(i.on_rw_authorize_req) refers to nrf_dfu_ble.o(.constdata) for .constdata
    nrf_dfu_ble.o(i.on_rw_authorize_req) refers to nrf_dfu_ble.o(.data) for .data
    nrf_dfu_ble.o(i.response_crc_add) refers to nrf_dfu_ble.o(i.uint32_encode) for uint32_encode
    nrf_dfu_ble.o(i.response_send) refers to nrf_dfu_ble.o(.constdata) for .constdata
    nrf_dfu_ble.o(i.response_send) refers to nrf_dfu_ble.o(.bss) for .bss
    nrf_dfu_ble.o(i.response_send) refers to nrf_dfu_ble.o(.data) for .data
    nrf_dfu_ble.o(.constdata) refers to nrf_dfu_ble.o(.bss) for m_enc_advdata
    nrf_dfu_ble.o(.constdata) refers to nrf_dfu_ble.o(i.ble_dfu_req_handler_callback) for ble_dfu_req_handler_callback
    nrf_dfu_ble.o(.constdata) refers to nrf_dfu_ble.o(i.on_flash_write) for on_flash_write
    nrf_dfu_ble.o(dfu_trans) refers to nrf_dfu_ble.o(i.ble_dfu_transport_init) for ble_dfu_transport_init
    nrf_dfu_ble.o(dfu_trans) refers to nrf_dfu_ble.o(i.ble_dfu_transport_close) for ble_dfu_transport_close
    nrf_dfu_ble.o(nrf_balloc) refers to nrf_dfu_ble.o(.data) for m_buffer_pool_nrf_balloc_cb
    nrf_dfu_ble.o(nrf_balloc) refers to nrf_dfu_ble.o(.bss) for m_buffer_pool_nrf_balloc_pool_stack
    nrf_dfu_ble.o(nrf_balloc) refers to nrf_dfu_ble.o(.bss) for m_buffer_pool_nrf_balloc_pool_mem
    nrf_dfu_ble.o(sdh_ble_observers2) refers to nrf_dfu_ble.o(i.ble_evt_handler) for ble_evt_handler
    nrf_dfu_flash.o(i.nrf_dfu_flash_erase) refers to nrf_fstorage.o(i.nrf_fstorage_erase) for nrf_fstorage_erase
    nrf_dfu_flash.o(i.nrf_dfu_flash_erase) refers to nrf_dfu_flash.o(fs_data) for fs_data
    nrf_dfu_flash.o(i.nrf_dfu_flash_init) refers to nrf_fstorage.o(i.nrf_fstorage_init) for nrf_fstorage_init
    nrf_dfu_flash.o(i.nrf_dfu_flash_init) refers to nrf_fstorage_sd.o(.constdata) for nrf_fstorage_sd
    nrf_dfu_flash.o(i.nrf_dfu_flash_init) refers to nrf_fstorage_nvmc.o(.constdata) for nrf_fstorage_nvmc
    nrf_dfu_flash.o(i.nrf_dfu_flash_init) refers to nrf_dfu_flash.o(fs_data) for fs_data
    nrf_dfu_flash.o(i.nrf_dfu_flash_store) refers to nrf_fstorage.o(i.nrf_fstorage_write) for nrf_fstorage_write
    nrf_dfu_flash.o(i.nrf_dfu_flash_store) refers to nrf_dfu_flash.o(fs_data) for fs_data
    nrf_dfu_flash.o(fs_data) refers to nrf_dfu_flash.o(i.dfu_fstorage_evt_handler) for dfu_fstorage_evt_handler
    nrf_dfu_handling_error.o(i.ext_error_get) refers to nrf_dfu_handling_error.o(.data) for .data
    nrf_dfu_handling_error.o(i.ext_error_set) refers to nrf_dfu_handling_error.o(.data) for .data
    nrf_dfu_mbr.o(i.nrf_dfu_mbr_init_sd) refers to nrf_dfu_mbr.o(.constdata) for .constdata
    nrf_dfu_req_handler.o(i.cmd_response_offset_and_crc_set) refers to nrf_dfu_settings.o(.bss) for s_dfu_settings
    nrf_dfu_req_handler.o(i.ext_err_code_handle) refers to nrf_dfu_handling_error.o(i.ext_error_set) for ext_error_set
    nrf_dfu_req_handler.o(i.nrf_dfu_command_req) refers to nrf_dfu_validation.o(i.nrf_dfu_validation_init_cmd_create) for nrf_dfu_validation_init_cmd_create
    nrf_dfu_req_handler.o(i.nrf_dfu_command_req) refers to nrf_dfu_req_handler.o(i.ext_err_code_handle) for ext_err_code_handle
    nrf_dfu_req_handler.o(i.nrf_dfu_command_req) refers to nrf_dfu_validation.o(i.nrf_dfu_validation_init_cmd_append) for nrf_dfu_validation_init_cmd_append
    nrf_dfu_req_handler.o(i.nrf_dfu_command_req) refers to nrf_dfu_req_handler.o(i.cmd_response_offset_and_crc_set) for cmd_response_offset_and_crc_set
    nrf_dfu_req_handler.o(i.nrf_dfu_command_req) refers to nrf_dfu_validation.o(i.nrf_dfu_validation_init_cmd_execute) for nrf_dfu_validation_init_cmd_execute
    nrf_dfu_req_handler.o(i.nrf_dfu_command_req) refers to nrf_dfu_settings.o(i.nrf_dfu_settings_write_and_backup) for nrf_dfu_settings_write_and_backup
    nrf_dfu_req_handler.o(i.nrf_dfu_command_req) refers to nrf_dfu_req_handler.o(.data) for .data
    nrf_dfu_req_handler.o(i.nrf_dfu_data_req) refers to nrf_dfu_req_handler.o(i.on_data_obj_create_request) for on_data_obj_create_request
    nrf_dfu_req_handler.o(i.nrf_dfu_data_req) refers to nrf_dfu_req_handler.o(i.on_data_obj_write_request) for on_data_obj_write_request
    nrf_dfu_req_handler.o(i.nrf_dfu_data_req) refers to nrf_dfu_req_handler.o(i.on_data_obj_execute_request_sched) for on_data_obj_execute_request_sched
    nrf_dfu_req_handler.o(i.nrf_dfu_data_req) refers to nrf_dfu_settings.o(.bss) for s_dfu_settings
    nrf_dfu_req_handler.o(i.nrf_dfu_data_req) refers to nrf_dfu_req_handler.o(.data) for .data
    nrf_dfu_req_handler.o(i.nrf_dfu_req_handler_init) refers to nrf_dfu_flash.o(i.nrf_dfu_flash_init) for nrf_dfu_flash_init
    nrf_dfu_req_handler.o(i.nrf_dfu_req_handler_init) refers to nrf_dfu_validation.o(i.nrf_dfu_validation_init) for nrf_dfu_validation_init
    nrf_dfu_req_handler.o(i.nrf_dfu_req_handler_init) refers to nrf_dfu_validation.o(i.nrf_dfu_validation_init_cmd_present) for nrf_dfu_validation_init_cmd_present
    nrf_dfu_req_handler.o(i.nrf_dfu_req_handler_init) refers to nrf_dfu_validation.o(i.nrf_dfu_validation_init_cmd_execute) for nrf_dfu_validation_init_cmd_execute
    nrf_dfu_req_handler.o(i.nrf_dfu_req_handler_init) refers to nrf_dfu_handling_error.o(i.ext_error_set) for ext_error_set
    nrf_dfu_req_handler.o(i.nrf_dfu_req_handler_init) refers to nrf_dfu_req_handler.o(.data) for .data
    nrf_dfu_req_handler.o(i.nrf_dfu_req_handler_on_req) refers to app_scheduler.o(i.app_sched_event_put) for app_sched_event_put
    nrf_dfu_req_handler.o(i.nrf_dfu_req_handler_on_req) refers to nrf_dfu_req_handler.o(i.nrf_dfu_req_handler_req) for nrf_dfu_req_handler_req
    nrf_dfu_req_handler.o(i.nrf_dfu_req_handler_req) refers to nrf_dfu_req_handler.o(i.nrf_dfu_req_handler_req_process) for nrf_dfu_req_handler_req_process
    nrf_dfu_req_handler.o(i.nrf_dfu_req_handler_req_process) refers to memcpya.o(.text) for __aeabi_memcpy4
    nrf_dfu_req_handler.o(i.nrf_dfu_req_handler_req_process) refers to nrf_dfu_req_handler.o(i.nrf_dfu_command_req) for nrf_dfu_command_req
    nrf_dfu_req_handler.o(i.nrf_dfu_req_handler_req_process) refers to nrf_dfu_req_handler.o(i.nrf_dfu_data_req) for nrf_dfu_data_req
    nrf_dfu_req_handler.o(i.nrf_dfu_req_handler_req_process) refers to nrf_dfu_req_handler.o(.constdata) for .constdata
    nrf_dfu_req_handler.o(i.nrf_dfu_req_handler_req_process) refers to nrf_dfu_req_handler.o(.data) for .data
    nrf_dfu_req_handler.o(i.on_data_obj_create_request) refers to nrf_dfu_validation.o(i.nrf_dfu_validation_init_cmd_present) for nrf_dfu_validation_init_cmd_present
    nrf_dfu_req_handler.o(i.on_data_obj_create_request) refers to nrf_dfu_flash.o(i.nrf_dfu_flash_erase) for nrf_dfu_flash_erase
    nrf_dfu_req_handler.o(i.on_data_obj_create_request) refers to nrf_dfu_settings.o(.bss) for s_dfu_settings
    nrf_dfu_req_handler.o(i.on_data_obj_create_request) refers to nrf_dfu_req_handler.o(.data) for .data
    nrf_dfu_req_handler.o(i.on_data_obj_execute_request_sched) refers to nrf_fstorage.o(i.nrf_fstorage_is_busy) for nrf_fstorage_is_busy
    nrf_dfu_req_handler.o(i.on_data_obj_execute_request_sched) refers to app_scheduler.o(i.app_sched_event_put) for app_sched_event_put
    nrf_dfu_req_handler.o(i.on_data_obj_execute_request_sched) refers to memcpya.o(.text) for __aeabi_memcpy4
    nrf_dfu_req_handler.o(i.on_data_obj_execute_request_sched) refers to nrf_dfu_validation.o(i.nrf_dfu_validation_activation_prepare) for nrf_dfu_validation_activation_prepare
    nrf_dfu_req_handler.o(i.on_data_obj_execute_request_sched) refers to nrf_dfu_req_handler.o(i.ext_err_code_handle) for ext_err_code_handle
    nrf_dfu_req_handler.o(i.on_data_obj_execute_request_sched) refers to nrf_dfu_settings.o(i.nrf_dfu_settings_write_and_backup) for nrf_dfu_settings_write_and_backup
    nrf_dfu_req_handler.o(i.on_data_obj_execute_request_sched) refers to nrf_dfu_req_handler.o(.constdata) for .constdata
    nrf_dfu_req_handler.o(i.on_data_obj_execute_request_sched) refers to nrf_dfu_settings.o(.bss) for s_dfu_settings
    nrf_dfu_req_handler.o(i.on_data_obj_execute_request_sched) refers to nrf_dfu_req_handler.o(.data) for .data
    nrf_dfu_req_handler.o(i.on_data_obj_execute_request_sched) refers to nrf_dfu_req_handler.o(i.on_dfu_complete) for on_dfu_complete
    nrf_dfu_req_handler.o(i.on_data_obj_write_request) refers to nrf_dfu_validation.o(i.nrf_dfu_validation_init_cmd_present) for nrf_dfu_validation_init_cmd_present
    nrf_dfu_req_handler.o(i.on_data_obj_write_request) refers to crc32.o(i.crc32_compute) for crc32_compute
    nrf_dfu_req_handler.o(i.on_data_obj_write_request) refers to nrf_dfu_flash.o(i.nrf_dfu_flash_store) for nrf_dfu_flash_store
    nrf_dfu_req_handler.o(i.on_data_obj_write_request) refers to nrf_dfu_settings.o(.bss) for s_dfu_settings
    nrf_dfu_req_handler.o(i.on_data_obj_write_request) refers to nrf_dfu_req_handler.o(.data) for .data
    nrf_dfu_req_handler.o(i.on_dfu_complete) refers to nrf_dfu_req_handler.o(.data) for .data
    nrf_dfu_settings.o(i.boot_validation_crc) refers to crc32.o(i.crc32_compute) for crc32_compute
    nrf_dfu_settings.o(i.crc_ok) refers to nrf_dfu_settings.o(i.settings_crc_get) for settings_crc_get
    nrf_dfu_settings.o(i.nrf_dfu_settings_backup) refers to nrf_dfu_settings.o(i.settings_backup) for settings_backup
    nrf_dfu_settings.o(i.nrf_dfu_settings_backup) refers to nrf_dfu_settings.o(.ARM.__AT_0x0003F000) for .ARM.__AT_0x0003F000
    nrf_dfu_settings.o(i.nrf_dfu_settings_init) refers to nrf_dfu_flash.o(i.nrf_dfu_flash_init) for nrf_dfu_flash_init
    nrf_dfu_settings.o(i.nrf_dfu_settings_init) refers to nrf_dfu_settings.o(i.nrf_dfu_settings_reinit) for nrf_dfu_settings_reinit
    nrf_dfu_settings.o(i.nrf_dfu_settings_init) refers to nrf_dfu_settings.o(i.nrf_dfu_settings_write_and_backup) for nrf_dfu_settings_write_and_backup
    nrf_dfu_settings.o(i.nrf_dfu_settings_progress_reset) refers to memseta.o(.text) for __aeabi_memset
    nrf_dfu_settings.o(i.nrf_dfu_settings_progress_reset) refers to nrf_dfu_settings.o(.bss) for .bss
    nrf_dfu_settings.o(i.nrf_dfu_settings_reinit) refers to nrf_dfu_settings.o(i.crc_ok) for crc_ok
    nrf_dfu_settings.o(i.nrf_dfu_settings_reinit) refers to nrf_dfu_settings.o(i.boot_validation_crc) for boot_validation_crc
    nrf_dfu_settings.o(i.nrf_dfu_settings_reinit) refers to memcpya.o(.text) for __aeabi_memcpy
    nrf_dfu_settings.o(i.nrf_dfu_settings_reinit) refers to memseta.o(.text) for __aeabi_memclr4
    nrf_dfu_settings.o(i.nrf_dfu_settings_reinit) refers to nrf_dfu_settings.o(.ARM.__AT_0x0003F000) for .ARM.__AT_0x0003F000
    nrf_dfu_settings.o(i.nrf_dfu_settings_reinit) refers to nrf_dfu_settings.o(.data) for .data
    nrf_dfu_settings.o(i.nrf_dfu_settings_reinit) refers to nrf_dfu_settings.o(.bss) for .bss
    nrf_dfu_settings.o(i.nrf_dfu_settings_write) refers to nrf_dfu_settings.o(i.settings_crc_get) for settings_crc_get
    nrf_dfu_settings.o(i.nrf_dfu_settings_write) refers to nrf_dfu_settings.o(i.boot_validation_crc) for boot_validation_crc
    nrf_dfu_settings.o(i.nrf_dfu_settings_write) refers to nrf_dfu_settings.o(i.settings_write) for settings_write
    nrf_dfu_settings.o(i.nrf_dfu_settings_write) refers to nrf_dfu_settings.o(.bss) for .bss
    nrf_dfu_settings.o(i.nrf_dfu_settings_write) refers to nrf_dfu_settings.o(.ARM.__AT_0x0003F000) for .ARM.__AT_0x0003F000
    nrf_dfu_settings.o(i.nrf_dfu_settings_write_and_backup) refers to nrf_dfu_settings.o(i.nrf_dfu_settings_write) for nrf_dfu_settings_write
    nrf_dfu_settings.o(i.nrf_dfu_settings_write_and_backup) refers to nrf_dfu_settings.o(i.settings_backup) for settings_backup
    nrf_dfu_settings.o(i.nrf_dfu_settings_write_and_backup) refers to nrf_dfu_settings.o(.bss) for .bss
    nrf_dfu_settings.o(i.settings_backup) refers to nrf_dfu_settings.o(i.settings_write) for settings_write
    nrf_dfu_settings.o(i.settings_backup) refers to nrf_dfu_settings.o(.bss) for .bss
    nrf_dfu_settings.o(i.settings_backup) refers to nrf_dfu_settings.o(.data) for .data
    nrf_dfu_settings.o(i.settings_crc_get) refers to crc32.o(i.crc32_compute) for crc32_compute
    nrf_dfu_settings.o(i.settings_write) refers to memcmp.o(.text) for memcmp
    nrf_dfu_settings.o(i.settings_write) refers to nrf_dfu_flash.o(i.nrf_dfu_flash_erase) for nrf_dfu_flash_erase
    nrf_dfu_settings.o(i.settings_write) refers to memcpya.o(.text) for __aeabi_memcpy
    nrf_dfu_settings.o(i.settings_write) refers to nrf_dfu_flash.o(i.nrf_dfu_flash_store) for nrf_dfu_flash_store
    nrf_dfu_settings.o(.data) refers to nrf_dfu_settings.o(.ARM.__AT_0x0003E000) for m_mbr_params_page
    nrf_dfu_settings_svci.o(i.nrf_dfu_settings_additional_erase) refers to nrf_nvmc.o(i.nrf_nvmc_page_erase) for nrf_nvmc_page_erase
    nrf_dfu_settings_svci.o(i.nrf_dfu_settings_additional_erase) refers to nrf_nvmc.o(i.nrf_nvmc_write_words) for nrf_nvmc_write_words
    nrf_dfu_settings_svci.o(i.nrf_dfu_settings_additional_erase) refers to nrf_dfu_settings.o(.bss) for s_dfu_settings
    nrf_dfu_settings_svci.o(i.nrf_dfu_settings_adv_name_copy) refers to memcpya.o(.text) for __aeabi_memcpy
    nrf_dfu_settings_svci.o(i.nrf_dfu_settings_adv_name_copy) refers to nrf_dfu_settings.o(.ARM.__AT_0x0003F000) for m_dfu_settings_buffer
    nrf_dfu_settings_svci.o(i.nrf_dfu_settings_adv_name_is_valid) refers to crc32.o(i.crc32_compute) for crc32_compute
    nrf_dfu_settings_svci.o(i.nrf_dfu_settings_adv_name_is_valid) refers to nrf_dfu_settings.o(.ARM.__AT_0x0003F000) for m_dfu_settings_buffer
    nrf_dfu_settings_svci.o(i.nrf_dfu_settings_adv_name_write) refers to crc32.o(i.crc32_compute) for crc32_compute
    nrf_dfu_settings_svci.o(i.nrf_dfu_settings_adv_name_write) refers to nrf_dfu_settings.o(.ARM.__AT_0x0003F000) for m_dfu_settings_buffer
    nrf_dfu_utils.o(i.nrf_dfu_app_start_address) refers to nrf_dfu_utils.o(i.nrf_dfu_bank0_start_addr) for nrf_dfu_bank0_start_addr
    nrf_dfu_utils.o(i.nrf_dfu_bank1_start_addr) refers to nrf_dfu_utils.o(i.nrf_dfu_bank0_start_addr) for nrf_dfu_bank0_start_addr
    nrf_dfu_utils.o(i.nrf_dfu_bank1_start_addr) refers to nrf_dfu_settings.o(.bss) for s_dfu_settings
    nrf_dfu_utils.o(i.nrf_dfu_bank_invalidate) refers to nrf_dfu_settings.o(.bss) for s_dfu_settings
    nrf_dfu_utils.o(i.nrf_dfu_cache_prepare) refers to nrf_dfu_utils.o(i.nrf_dfu_bank1_start_addr) for nrf_dfu_bank1_start_addr
    nrf_dfu_utils.o(i.nrf_dfu_cache_prepare) refers to nrf_dfu_utils.o(i.nrf_dfu_bank0_start_addr) for nrf_dfu_bank0_start_addr
    nrf_dfu_utils.o(i.nrf_dfu_cache_prepare) refers to nrf_dfu_utils.o(i.nrf_dfu_bank_invalidate) for nrf_dfu_bank_invalidate
    nrf_dfu_utils.o(i.nrf_dfu_cache_prepare) refers to nrf_dfu_settings.o(.bss) for s_dfu_settings
    nrf_dfu_validation.o(i.boot_validation_extract) refers to memseta.o(.text) for __aeabi_memclr4
    nrf_dfu_validation.o(i.boot_validation_extract) refers to crc32.o(i.crc32_compute) for crc32_compute
    nrf_dfu_validation.o(i.boot_validation_extract) refers to nrf_crypto_hash.o(i.nrf_crypto_hash_calculate) for nrf_crypto_hash_calculate
    nrf_dfu_validation.o(i.boot_validation_extract) refers to memcpya.o(.text) for __aeabi_memcpy
    nrf_dfu_validation.o(i.boot_validation_extract) refers to nrf_dfu_validation.o(i.nrf_dfu_validation_boot_validate) for nrf_dfu_validation_boot_validate
    nrf_dfu_validation.o(i.boot_validation_extract) refers to nrf_sw_backend_hash.o(.constdata) for g_nrf_crypto_hash_sha256_info
    nrf_dfu_validation.o(i.crypto_init) refers to nrf_crypto_init.o(i.nrf_crypto_init) for nrf_crypto_init
    nrf_dfu_validation.o(i.crypto_init) refers to nrf_crypto_shared.o(i.nrf_crypto_internal_double_swap_endian) for nrf_crypto_internal_double_swap_endian
    nrf_dfu_validation.o(i.crypto_init) refers to nrf_crypto_ecc.o(i.nrf_crypto_ecc_public_key_from_raw) for nrf_crypto_ecc_public_key_from_raw
    nrf_dfu_validation.o(i.crypto_init) refers to nrf_dfu_validation.o(.data) for .data
    nrf_dfu_validation.o(i.crypto_init) refers to dfu_public_key.o(.constdata) for pk
    nrf_dfu_validation.o(i.crypto_init) refers to nrf_dfu_validation.o(.bss) for .bss
    nrf_dfu_validation.o(i.crypto_init) refers to micro_ecc_backend_ecc.o(.constdata) for g_nrf_crypto_ecc_secp256r1_curve_info
    nrf_dfu_validation.o(i.fw_hash_ok) refers to nrf_dfu_validation.o(i.nrf_dfu_validation_hash_ok) for nrf_dfu_validation_hash_ok
    nrf_dfu_validation.o(i.nrf_dfu_validation_activation_prepare) refers to nrf_dfu_validation.o(i.postvalidate) for postvalidate
    nrf_dfu_validation.o(i.nrf_dfu_validation_boot_validate) refers to crc32.o(i.crc32_compute) for crc32_compute
    nrf_dfu_validation.o(i.nrf_dfu_validation_boot_validate) refers to nrf_dfu_validation.o(i.nrf_dfu_validation_hash_ok) for nrf_dfu_validation_hash_ok
    nrf_dfu_validation.o(i.nrf_dfu_validation_boot_validate) refers to nrf_dfu_validation.o(i.nrf_dfu_validation_signature_check) for nrf_dfu_validation_signature_check
    nrf_dfu_validation.o(i.nrf_dfu_validation_hash_ok) refers to memseta.o(.text) for __aeabi_memclr4
    nrf_dfu_validation.o(i.nrf_dfu_validation_hash_ok) refers to nrf_dfu_validation.o(i.crypto_init) for crypto_init
    nrf_dfu_validation.o(i.nrf_dfu_validation_hash_ok) refers to nrf_crypto_shared.o(i.nrf_crypto_internal_swap_endian) for nrf_crypto_internal_swap_endian
    nrf_dfu_validation.o(i.nrf_dfu_validation_hash_ok) refers to nrf_crypto_hash.o(i.nrf_crypto_hash_calculate) for nrf_crypto_hash_calculate
    nrf_dfu_validation.o(i.nrf_dfu_validation_hash_ok) refers to memcmp.o(.text) for memcmp
    nrf_dfu_validation.o(i.nrf_dfu_validation_hash_ok) refers to nrf_dfu_validation.o(.bss) for .bss
    nrf_dfu_validation.o(i.nrf_dfu_validation_hash_ok) refers to nrf_sw_backend_hash.o(.constdata) for g_nrf_crypto_hash_sha256_info
    nrf_dfu_validation.o(i.nrf_dfu_validation_init) refers to nrf_dfu_validation.o(i.stored_init_cmd_decode) for stored_init_cmd_decode
    nrf_dfu_validation.o(i.nrf_dfu_validation_init) refers to nrf_dfu_settings.o(.bss) for s_dfu_settings
    nrf_dfu_validation.o(i.nrf_dfu_validation_init) refers to nrf_dfu_validation.o(.data) for .data
    nrf_dfu_validation.o(i.nrf_dfu_validation_init_cmd_append) refers to memcpya.o(.text) for __aeabi_memcpy
    nrf_dfu_validation.o(i.nrf_dfu_validation_init_cmd_append) refers to crc32.o(i.crc32_compute) for crc32_compute
    nrf_dfu_validation.o(i.nrf_dfu_validation_init_cmd_append) refers to nrf_dfu_settings.o(.bss) for s_dfu_settings
    nrf_dfu_validation.o(i.nrf_dfu_validation_init_cmd_create) refers to nrf_dfu_settings.o(i.nrf_dfu_settings_progress_reset) for nrf_dfu_settings_progress_reset
    nrf_dfu_validation.o(i.nrf_dfu_validation_init_cmd_create) refers to nrf_dfu_validation.o(.data) for .data
    nrf_dfu_validation.o(i.nrf_dfu_validation_init_cmd_create) refers to nrf_dfu_settings.o(.bss) for s_dfu_settings
    nrf_dfu_validation.o(i.nrf_dfu_validation_init_cmd_execute) refers to nrf_dfu_utils.o(i.nrf_dfu_bank1_start_addr) for nrf_dfu_bank1_start_addr
    nrf_dfu_validation.o(i.nrf_dfu_validation_init_cmd_execute) refers to nrf_dfu_validation.o(i.update_data_size_get) for update_data_size_get
    nrf_dfu_validation.o(i.nrf_dfu_validation_init_cmd_execute) refers to nrf_dfu_validation.o(i.stored_init_cmd_decode) for stored_init_cmd_decode
    nrf_dfu_validation.o(i.nrf_dfu_validation_init_cmd_execute) refers to nrf_dfu_validation.o(i.nrf_dfu_validation_prevalidate) for nrf_dfu_validation_prevalidate
    nrf_dfu_validation.o(i.nrf_dfu_validation_init_cmd_execute) refers to nrf_dfu_utils.o(i.nrf_dfu_cache_prepare) for nrf_dfu_cache_prepare
    nrf_dfu_validation.o(i.nrf_dfu_validation_init_cmd_execute) refers to nrf_dfu_settings.o(i.nrf_dfu_settings_progress_reset) for nrf_dfu_settings_progress_reset
    nrf_dfu_validation.o(i.nrf_dfu_validation_init_cmd_execute) refers to nrf_dfu_settings.o(.bss) for s_dfu_settings
    nrf_dfu_validation.o(i.nrf_dfu_validation_init_cmd_execute) refers to nrf_dfu_validation.o(.data) for .data
    nrf_dfu_validation.o(i.nrf_dfu_validation_init_cmd_present) refers to nrf_dfu_validation.o(.data) for .data
    nrf_dfu_validation.o(i.nrf_dfu_validation_init_cmd_status_get) refers to nrf_dfu_settings.o(.bss) for s_dfu_settings
    nrf_dfu_validation.o(i.nrf_dfu_validation_post_data_execute) refers to nrf_dfu_validation.o(i.postvalidate) for postvalidate
    nrf_dfu_validation.o(i.nrf_dfu_validation_prevalidate) refers to nrf_dfu_validation.o(i.nrf_dfu_validation_signature_check) for nrf_dfu_validation_signature_check
    nrf_dfu_validation.o(i.nrf_dfu_validation_prevalidate) refers to nrf_dfu_ver_validation.o(i.nrf_dfu_ver_validation_check) for nrf_dfu_ver_validation_check
    nrf_dfu_validation.o(i.nrf_dfu_validation_prevalidate) refers to nrf_dfu_validation.o(.bss) for .bss
    nrf_dfu_validation.o(i.nrf_dfu_validation_prevalidate) refers to nrf_dfu_validation.o(.data) for .data
    nrf_dfu_validation.o(i.nrf_dfu_validation_signature_check) refers to memseta.o(.text) for __aeabi_memclr4
    nrf_dfu_validation.o(i.nrf_dfu_validation_signature_check) refers to nrf_dfu_validation.o(i.crypto_init) for crypto_init
    nrf_dfu_validation.o(i.nrf_dfu_validation_signature_check) refers to nrf_crypto_hash.o(i.nrf_crypto_hash_calculate) for nrf_crypto_hash_calculate
    nrf_dfu_validation.o(i.nrf_dfu_validation_signature_check) refers to memcpya.o(.text) for __aeabi_memcpy
    nrf_dfu_validation.o(i.nrf_dfu_validation_signature_check) refers to nrf_crypto_shared.o(i.nrf_crypto_internal_double_swap_endian_in_place) for nrf_crypto_internal_double_swap_endian_in_place
    nrf_dfu_validation.o(i.nrf_dfu_validation_signature_check) refers to nrf_crypto_ecdsa.o(i.nrf_crypto_ecdsa_verify) for nrf_crypto_ecdsa_verify
    nrf_dfu_validation.o(i.nrf_dfu_validation_signature_check) refers to nrf_dfu_validation.o(.bss) for .bss
    nrf_dfu_validation.o(i.nrf_dfu_validation_signature_check) refers to nrf_sw_backend_hash.o(.constdata) for g_nrf_crypto_hash_sha256_info
    nrf_dfu_validation.o(i.nrf_dfu_validation_valid_external_app) refers to nrf_dfu_settings.o(.bss) for s_dfu_settings
    nrf_dfu_validation.o(i.pb_decoding_callback) refers to dfu-cc.pb.o(.constdata) for dfu_init_command_fields
    nrf_dfu_validation.o(i.pb_decoding_callback) refers to nrf_dfu_validation.o(.data) for .data
    nrf_dfu_validation.o(i.postvalidate) refers to nrf_dfu_validation.o(i.fw_hash_ok) for fw_hash_ok
    nrf_dfu_validation.o(i.postvalidate) refers to nrf_dfu_validation.o(i.postvalidate_sd_bl) for postvalidate_sd_bl
    nrf_dfu_validation.o(i.postvalidate) refers to nrf_dfu_validation.o(i.boot_validation_extract) for boot_validation_extract
    nrf_dfu_validation.o(i.postvalidate) refers to memcpya.o(.text) for __aeabi_memcpy
    nrf_dfu_validation.o(i.postvalidate) refers to nrf_dfu_utils.o(i.nrf_dfu_bank_invalidate) for nrf_dfu_bank_invalidate
    nrf_dfu_validation.o(i.postvalidate) refers to nrf_dfu_settings.o(i.nrf_dfu_settings_progress_reset) for nrf_dfu_settings_progress_reset
    nrf_dfu_validation.o(i.postvalidate) refers to crc32.o(i.crc32_compute) for crc32_compute
    nrf_dfu_validation.o(i.postvalidate) refers to nrf_dfu_validation.o(.data) for .data
    nrf_dfu_validation.o(i.postvalidate) refers to nrf_dfu_settings.o(.bss) for s_dfu_settings
    nrf_dfu_validation.o(i.postvalidate_sd_bl) refers to memseta.o(.text) for __aeabi_memclr4
    nrf_dfu_validation.o(i.postvalidate_sd_bl) refers to nrf_dfu_validation.o(i.is_major_softdevice_update) for is_major_softdevice_update
    nrf_dfu_validation.o(i.postvalidate_sd_bl) refers to nrf_dfu_validation.o(i.boot_validation_extract) for boot_validation_extract
    nrf_dfu_validation.o(i.postvalidate_sd_bl) refers to nrf_dfu_utils.o(i.nrf_dfu_bank_invalidate) for nrf_dfu_bank_invalidate
    nrf_dfu_validation.o(i.postvalidate_sd_bl) refers to memcpya.o(.text) for __aeabi_memcpy4
    nrf_dfu_validation.o(i.postvalidate_sd_bl) refers to nrf_dfu_settings.o(.bss) for s_dfu_settings
    nrf_dfu_validation.o(i.stored_init_cmd_decode) refers to pb_decode.o(i.pb_istream_from_buffer) for pb_istream_from_buffer
    nrf_dfu_validation.o(i.stored_init_cmd_decode) refers to memseta.o(.text) for __aeabi_memclr4
    nrf_dfu_validation.o(i.stored_init_cmd_decode) refers to pb_decode.o(i.pb_decode) for pb_decode
    nrf_dfu_validation.o(i.stored_init_cmd_decode) refers to nrf_dfu_settings.o(.bss) for s_dfu_settings
    nrf_dfu_validation.o(i.stored_init_cmd_decode) refers to nrf_dfu_validation.o(.bss) for .bss
    nrf_dfu_validation.o(i.stored_init_cmd_decode) refers to nrf_dfu_validation.o(i.pb_decoding_callback) for pb_decoding_callback
    nrf_dfu_validation.o(i.stored_init_cmd_decode) refers to nrf_dfu_validation.o(.data) for .data
    nrf_dfu_validation.o(i.stored_init_cmd_decode) refers to dfu-cc.pb.o(.constdata) for dfu_packet_fields
    nrf_dfu_validation.o(i.stored_init_cmd_decode) refers to dfu-cc.pb.o(.constdata) for dfu_init_command_fields
    nrf_dfu_ver_validation.o(i.nrf_dfu_ver_validation_check) refers to nrf_dfu_ver_validation.o(i.sd_req_ok) for sd_req_ok
    nrf_dfu_ver_validation.o(i.nrf_dfu_ver_validation_check) refers to nrf_dfu_settings.o(.bss) for s_dfu_settings
    nrf_dfu_ver_validation.o(i.sd_req_ok) refers to nrf_dfu_ver_validation.o(i.sd_req_check) for sd_req_check
    nrf_nvmc.o(i.nrf_nvmc_write_bytes) refers to nrf_nvmc.o(i.nrf_nvmc_write_byte) for nrf_nvmc_write_byte
    nrfx_atomic.o(i.nrfx_atomic_flag_clear) refers to nrfx_atomic.o(i.nrfx_atomic_u32_and) for nrfx_atomic_u32_and
    nrfx_atomic.o(i.nrfx_atomic_flag_clear_fetch) refers to nrfx_atomic.o(i.nrfx_atomic_u32_fetch_and) for nrfx_atomic_u32_fetch_and
    nrfx_atomic.o(i.nrfx_atomic_flag_set) refers to nrfx_atomic.o(i.nrfx_atomic_u32_or) for nrfx_atomic_u32_or
    nrfx_atomic.o(i.nrfx_atomic_flag_set_fetch) refers to nrfx_atomic.o(i.nrfx_atomic_u32_fetch_or) for nrfx_atomic_u32_fetch_or
    nrfx_atomic.o(i.nrfx_atomic_u32_add) refers to nrfx_atomic.o(.emb_text) for __asm___13_nrfx_atomic_c_3bd32246__nrfx_atomic_internal_add
    nrfx_atomic.o(i.nrfx_atomic_u32_and) refers to nrfx_atomic.o(.emb_text) for __asm___13_nrfx_atomic_c_3bd32246__nrfx_atomic_internal_and
    nrfx_atomic.o(i.nrfx_atomic_u32_cmp_exch) refers to nrfx_atomic.o(.emb_text) for __asm___13_nrfx_atomic_c_3bd32246__nrfx_atomic_internal_cmp_exch
    nrfx_atomic.o(i.nrfx_atomic_u32_fetch_add) refers to nrfx_atomic.o(.emb_text) for __asm___13_nrfx_atomic_c_3bd32246__nrfx_atomic_internal_add
    nrfx_atomic.o(i.nrfx_atomic_u32_fetch_and) refers to nrfx_atomic.o(.emb_text) for __asm___13_nrfx_atomic_c_3bd32246__nrfx_atomic_internal_and
    nrfx_atomic.o(i.nrfx_atomic_u32_fetch_or) refers to nrfx_atomic.o(.emb_text) for __asm___13_nrfx_atomic_c_3bd32246__nrfx_atomic_internal_orr
    nrfx_atomic.o(i.nrfx_atomic_u32_fetch_store) refers to nrfx_atomic.o(.emb_text) for __asm___13_nrfx_atomic_c_3bd32246__nrfx_atomic_internal_mov
    nrfx_atomic.o(i.nrfx_atomic_u32_fetch_sub) refers to nrfx_atomic.o(.emb_text) for __asm___13_nrfx_atomic_c_3bd32246__nrfx_atomic_internal_sub
    nrfx_atomic.o(i.nrfx_atomic_u32_fetch_sub_hs) refers to nrfx_atomic.o(.emb_text) for __asm___13_nrfx_atomic_c_3bd32246__nrfx_atomic_internal_sub_hs
    nrfx_atomic.o(i.nrfx_atomic_u32_fetch_xor) refers to nrfx_atomic.o(.emb_text) for __asm___13_nrfx_atomic_c_3bd32246__nrfx_atomic_internal_eor
    nrfx_atomic.o(i.nrfx_atomic_u32_or) refers to nrfx_atomic.o(.emb_text) for __asm___13_nrfx_atomic_c_3bd32246__nrfx_atomic_internal_orr
    nrfx_atomic.o(i.nrfx_atomic_u32_store) refers to nrfx_atomic.o(.emb_text) for __asm___13_nrfx_atomic_c_3bd32246__nrfx_atomic_internal_mov
    nrfx_atomic.o(i.nrfx_atomic_u32_sub) refers to nrfx_atomic.o(.emb_text) for __asm___13_nrfx_atomic_c_3bd32246__nrfx_atomic_internal_sub
    nrfx_atomic.o(i.nrfx_atomic_u32_sub_hs) refers to nrfx_atomic.o(.emb_text) for __asm___13_nrfx_atomic_c_3bd32246__nrfx_atomic_internal_sub_hs
    nrfx_atomic.o(i.nrfx_atomic_u32_xor) refers to nrfx_atomic.o(.emb_text) for __asm___13_nrfx_atomic_c_3bd32246__nrfx_atomic_internal_eor
    app_scheduler.o(i.app_sched_event_put) refers to app_util_platform.o(i.app_util_critical_region_enter) for app_util_critical_region_enter
    app_scheduler.o(i.app_sched_event_put) refers to app_util_platform.o(i.app_util_critical_region_exit) for app_util_critical_region_exit
    app_scheduler.o(i.app_sched_event_put) refers to memcpya.o(.text) for __aeabi_memcpy
    app_scheduler.o(i.app_sched_event_put) refers to app_scheduler.o(.data) for .data
    app_scheduler.o(i.app_sched_execute) refers to app_scheduler.o(.data) for .data
    app_scheduler.o(i.app_sched_init) refers to app_scheduler.o(.data) for .data
    app_scheduler.o(i.app_sched_queue_space_get) refers to app_scheduler.o(.data) for .data
    app_util_platform.o(i.app_util_critical_region_enter) refers to app_util_platform.o(.bss) for .bss
    app_util_platform.o(i.app_util_critical_region_exit) refers to app_util_platform.o(.bss) for .bss
    app_util_platform.o(i.app_util_disable_irq) refers to app_util_platform.o(.data) for .data
    app_util_platform.o(i.app_util_enable_irq) refers to app_util_platform.o(.data) for .data
    mem_manager.o(i.block_init) refers to mem_manager.o(.data) for .data
    mem_manager.o(i.get_block_cat) refers to mem_manager.o(.constdata) for .constdata
    mem_manager.o(i.get_block_size) refers to mem_manager.o(i.get_block_cat) for get_block_cat
    mem_manager.o(i.get_block_size) refers to mem_manager.o(.constdata) for .constdata
    mem_manager.o(i.nrf_calloc) refers to mem_manager.o(i.nrf_mem_reserve) for nrf_mem_reserve
    mem_manager.o(i.nrf_calloc) refers to memseta.o(.text) for __aeabi_memclr
    mem_manager.o(i.nrf_free) refers to mem_manager.o(i.block_init) for block_init
    mem_manager.o(i.nrf_free) refers to mem_manager.o(i.get_block_size) for get_block_size
    mem_manager.o(i.nrf_free) refers to mem_manager.o(.data) for .data
    mem_manager.o(i.nrf_free) refers to mem_manager.o(.bss) for .bss
    mem_manager.o(i.nrf_malloc) refers to mem_manager.o(i.nrf_mem_reserve) for nrf_mem_reserve
    mem_manager.o(i.nrf_mem_init) refers to mem_manager.o(i.block_init) for block_init
    mem_manager.o(i.nrf_mem_init) refers to mem_manager.o(.data) for .data
    mem_manager.o(i.nrf_mem_reserve) refers to mem_manager.o(i.get_block_cat) for get_block_cat
    mem_manager.o(i.nrf_mem_reserve) refers to mem_manager.o(i.get_block_size) for get_block_size
    mem_manager.o(i.nrf_mem_reserve) refers to mem_manager.o(.data) for .data
    mem_manager.o(i.nrf_mem_reserve) refers to mem_manager.o(.constdata) for .constdata
    mem_manager.o(i.nrf_mem_reserve) refers to mem_manager.o(.bss) for .bss
    nrf_assert.o(i.assert_nrf_callback) refers to main.o(i.app_error_fault_handler) for app_error_fault_handler
    nrf_atfifo.o(i.nrf_atfifo_alloc_put) refers to nrf_atfifo.o(i.nrf_atfifo_item_alloc) for nrf_atfifo_item_alloc
    nrf_atfifo.o(i.nrf_atfifo_alloc_put) refers to memcpya.o(.text) for __aeabi_memcpy
    nrf_atfifo.o(i.nrf_atfifo_alloc_put) refers to nrf_atfifo.o(i.nrf_atfifo_item_put) for nrf_atfifo_item_put
    nrf_atfifo.o(i.nrf_atfifo_clear) refers to nrf_atfifo.o(.emb_text) for __asm___12_nrf_atfifo_c_51f461e1__nrf_atfifo_space_clear
    nrf_atfifo.o(i.nrf_atfifo_get_free) refers to nrf_atfifo.o(i.nrf_atfifo_item_get) for nrf_atfifo_item_get
    nrf_atfifo.o(i.nrf_atfifo_get_free) refers to memcpya.o(.text) for __aeabi_memcpy
    nrf_atfifo.o(i.nrf_atfifo_get_free) refers to nrf_atfifo.o(i.nrf_atfifo_item_free) for nrf_atfifo_item_free
    nrf_atfifo.o(i.nrf_atfifo_item_alloc) refers to nrf_atfifo.o(.emb_text) for __asm___12_nrf_atfifo_c_51f461e1__nrf_atfifo_wspace_req
    nrf_atfifo.o(i.nrf_atfifo_item_free) refers to nrf_atfifo.o(.emb_text) for __asm___12_nrf_atfifo_c_51f461e1__nrf_atfifo_rspace_close
    nrf_atfifo.o(i.nrf_atfifo_item_get) refers to nrf_atfifo.o(.emb_text) for __asm___12_nrf_atfifo_c_51f461e1__nrf_atfifo_rspace_req
    nrf_atfifo.o(i.nrf_atfifo_item_put) refers to nrf_atfifo.o(.emb_text) for __asm___12_nrf_atfifo_c_51f461e1__nrf_atfifo_wspace_close
    nrf_atomic.o(i.nrf_atomic_flag_clear) refers to nrf_atomic.o(i.nrf_atomic_u32_and) for nrf_atomic_u32_and
    nrf_atomic.o(i.nrf_atomic_flag_clear_fetch) refers to nrf_atomic.o(i.nrf_atomic_u32_fetch_and) for nrf_atomic_u32_fetch_and
    nrf_atomic.o(i.nrf_atomic_flag_set) refers to nrf_atomic.o(i.nrf_atomic_u32_or) for nrf_atomic_u32_or
    nrf_atomic.o(i.nrf_atomic_flag_set_fetch) refers to nrf_atomic.o(i.nrf_atomic_u32_fetch_or) for nrf_atomic_u32_fetch_or
    nrf_atomic.o(i.nrf_atomic_u32_add) refers to nrf_atomic.o(.emb_text) for __asm___12_nrf_atomic_c_85ca2469__nrf_atomic_internal_add
    nrf_atomic.o(i.nrf_atomic_u32_and) refers to nrf_atomic.o(.emb_text) for __asm___12_nrf_atomic_c_85ca2469__nrf_atomic_internal_and
    nrf_atomic.o(i.nrf_atomic_u32_cmp_exch) refers to nrf_atomic.o(.emb_text) for __asm___12_nrf_atomic_c_85ca2469__nrf_atomic_internal_cmp_exch
    nrf_atomic.o(i.nrf_atomic_u32_fetch_add) refers to nrf_atomic.o(.emb_text) for __asm___12_nrf_atomic_c_85ca2469__nrf_atomic_internal_add
    nrf_atomic.o(i.nrf_atomic_u32_fetch_and) refers to nrf_atomic.o(.emb_text) for __asm___12_nrf_atomic_c_85ca2469__nrf_atomic_internal_and
    nrf_atomic.o(i.nrf_atomic_u32_fetch_or) refers to nrf_atomic.o(.emb_text) for __asm___12_nrf_atomic_c_85ca2469__nrf_atomic_internal_orr
    nrf_atomic.o(i.nrf_atomic_u32_fetch_store) refers to nrf_atomic.o(.emb_text) for __asm___12_nrf_atomic_c_85ca2469__nrf_atomic_internal_mov
    nrf_atomic.o(i.nrf_atomic_u32_fetch_sub) refers to nrf_atomic.o(.emb_text) for __asm___12_nrf_atomic_c_85ca2469__nrf_atomic_internal_sub
    nrf_atomic.o(i.nrf_atomic_u32_fetch_sub_hs) refers to nrf_atomic.o(.emb_text) for __asm___12_nrf_atomic_c_85ca2469__nrf_atomic_internal_sub_hs
    nrf_atomic.o(i.nrf_atomic_u32_fetch_xor) refers to nrf_atomic.o(.emb_text) for __asm___12_nrf_atomic_c_85ca2469__nrf_atomic_internal_eor
    nrf_atomic.o(i.nrf_atomic_u32_or) refers to nrf_atomic.o(.emb_text) for __asm___12_nrf_atomic_c_85ca2469__nrf_atomic_internal_orr
    nrf_atomic.o(i.nrf_atomic_u32_store) refers to nrf_atomic.o(.emb_text) for __asm___12_nrf_atomic_c_85ca2469__nrf_atomic_internal_mov
    nrf_atomic.o(i.nrf_atomic_u32_sub) refers to nrf_atomic.o(.emb_text) for __asm___12_nrf_atomic_c_85ca2469__nrf_atomic_internal_sub
    nrf_atomic.o(i.nrf_atomic_u32_sub_hs) refers to nrf_atomic.o(.emb_text) for __asm___12_nrf_atomic_c_85ca2469__nrf_atomic_internal_sub_hs
    nrf_atomic.o(i.nrf_atomic_u32_xor) refers to nrf_atomic.o(.emb_text) for __asm___12_nrf_atomic_c_85ca2469__nrf_atomic_internal_eor
    nrf_balloc.o(i.nrf_balloc_alloc) refers to app_util_platform.o(i.app_util_critical_region_enter) for app_util_critical_region_enter
    nrf_balloc.o(i.nrf_balloc_alloc) refers to app_util_platform.o(i.app_util_critical_region_exit) for app_util_critical_region_exit
    nrf_balloc.o(i.nrf_balloc_free) refers to app_util_platform.o(i.app_util_critical_region_enter) for app_util_critical_region_enter
    nrf_balloc.o(i.nrf_balloc_free) refers to app_util_platform.o(i.app_util_critical_region_exit) for app_util_critical_region_exit
    nrf_fstorage.o(i.nrf_fstorage_erase) refers to nrf_fstorage.o(i.addr_is_within_bounds) for addr_is_within_bounds
    nrf_fstorage.o(i.nrf_fstorage_read) refers to nrf_fstorage.o(i.addr_is_aligned32) for addr_is_aligned32
    nrf_fstorage.o(i.nrf_fstorage_read) refers to nrf_fstorage.o(i.addr_is_within_bounds) for addr_is_within_bounds
    nrf_fstorage.o(i.nrf_fstorage_write) refers to nrf_fstorage.o(i.addr_is_aligned32) for addr_is_aligned32
    nrf_fstorage.o(i.nrf_fstorage_write) refers to nrf_fstorage.o(i.addr_is_within_bounds) for addr_is_within_bounds
    nrf_fstorage_nvmc.o(i.erase) refers to nrf_atomic.o(i.nrf_atomic_flag_set_fetch) for nrf_atomic_flag_set_fetch
    nrf_fstorage_nvmc.o(i.erase) refers to nrf_nvmc.o(i.nrf_nvmc_page_erase) for nrf_nvmc_page_erase
    nrf_fstorage_nvmc.o(i.erase) refers to nrf_atomic.o(i.nrf_atomic_flag_clear) for nrf_atomic_flag_clear
    nrf_fstorage_nvmc.o(i.erase) refers to nrf_fstorage_nvmc.o(i.event_send) for event_send
    nrf_fstorage_nvmc.o(i.erase) refers to nrf_fstorage_nvmc.o(.data) for .data
    nrf_fstorage_nvmc.o(i.event_send) refers to memseta.o(.text) for __aeabi_memclr4
    nrf_fstorage_nvmc.o(i.init) refers to nrf_fstorage_nvmc.o(.constdata) for .constdata
    nrf_fstorage_nvmc.o(i.is_busy) refers to nrf_fstorage_nvmc.o(.data) for .data
    nrf_fstorage_nvmc.o(i.read) refers to memcpya.o(.text) for __aeabi_memcpy
    nrf_fstorage_nvmc.o(i.uninit) refers to nrf_atomic.o(i.nrf_atomic_flag_clear) for nrf_atomic_flag_clear
    nrf_fstorage_nvmc.o(i.uninit) refers to nrf_fstorage_nvmc.o(.data) for .data
    nrf_fstorage_nvmc.o(i.write) refers to nrf_atomic.o(i.nrf_atomic_flag_set_fetch) for nrf_atomic_flag_set_fetch
    nrf_fstorage_nvmc.o(i.write) refers to nrf_nvmc.o(i.nrf_nvmc_write_words) for nrf_nvmc_write_words
    nrf_fstorage_nvmc.o(i.write) refers to nrf_atomic.o(i.nrf_atomic_flag_clear) for nrf_atomic_flag_clear
    nrf_fstorage_nvmc.o(i.write) refers to nrf_fstorage_nvmc.o(i.event_send) for event_send
    nrf_fstorage_nvmc.o(i.write) refers to nrf_fstorage_nvmc.o(.data) for .data
    nrf_fstorage_nvmc.o(.constdata) refers to nrf_fstorage_nvmc.o(i.init) for init
    nrf_fstorage_nvmc.o(.constdata) refers to nrf_fstorage_nvmc.o(i.uninit) for uninit
    nrf_fstorage_nvmc.o(.constdata) refers to nrf_fstorage_nvmc.o(i.read) for read
    nrf_fstorage_nvmc.o(.constdata) refers to nrf_fstorage_nvmc.o(i.write) for write
    nrf_fstorage_nvmc.o(.constdata) refers to nrf_fstorage_nvmc.o(i.erase) for erase
    nrf_fstorage_nvmc.o(.constdata) refers to nrf_fstorage_nvmc.o(i.rmap) for rmap
    nrf_fstorage_nvmc.o(.constdata) refers to nrf_fstorage_nvmc.o(i.wmap) for wmap
    nrf_fstorage_nvmc.o(.constdata) refers to nrf_fstorage_nvmc.o(i.is_busy) for is_busy
    nrf_fstorage_sd.o(i.erase) refers to nrf_atfifo.o(i.nrf_atfifo_item_alloc) for nrf_atfifo_item_alloc
    nrf_fstorage_sd.o(i.erase) refers to memseta.o(.text) for __aeabi_memclr4
    nrf_fstorage_sd.o(i.erase) refers to nrf_atfifo.o(i.nrf_atfifo_item_put) for nrf_atfifo_item_put
    nrf_fstorage_sd.o(i.erase) refers to nrf_fstorage_sd.o(i.queue_start) for queue_start
    nrf_fstorage_sd.o(i.erase) refers to nrf_fstorage_sd.o(.constdata) for .constdata
    nrf_fstorage_sd.o(i.event_send) refers to memseta.o(.text) for __aeabi_memclr4
    nrf_fstorage_sd.o(i.init) refers to nrf_atomic.o(i.nrf_atomic_flag_set_fetch) for nrf_atomic_flag_set_fetch
    nrf_fstorage_sd.o(i.init) refers to nrf_sdh.o(i.nrf_sdh_is_enabled) for nrf_sdh_is_enabled
    nrf_fstorage_sd.o(i.init) refers to nrf_atfifo.o(i.nrf_atfifo_init) for nrf_atfifo_init
    nrf_fstorage_sd.o(i.init) refers to nrf_fstorage_sd.o(.constdata) for .constdata
    nrf_fstorage_sd.o(i.init) refers to nrf_fstorage_sd.o(.bss) for .bss
    nrf_fstorage_sd.o(i.is_busy) refers to nrf_fstorage_sd.o(.bss) for .bss
    nrf_fstorage_sd.o(i.nrf_fstorage_sdh_req_handler) refers to nrf_fstorage_sd.o(.bss) for .bss
    nrf_fstorage_sd.o(i.nrf_fstorage_sdh_state_handler) refers to nrf_fstorage_sd.o(i.queue_process) for queue_process
    nrf_fstorage_sd.o(i.nrf_fstorage_sdh_state_handler) refers to nrf_fstorage_sd.o(.bss) for .bss
    nrf_fstorage_sd.o(i.nrf_fstorage_sys_evt_handler) refers to nrf_fstorage_sd.o(i.event_send) for event_send
    nrf_fstorage_sd.o(i.nrf_fstorage_sys_evt_handler) refers to nrf_fstorage_sd.o(i.queue_free) for queue_free
    nrf_fstorage_sd.o(i.nrf_fstorage_sys_evt_handler) refers to nrf_sdh.o(i.nrf_sdh_request_continue) for nrf_sdh_request_continue
    nrf_fstorage_sd.o(i.nrf_fstorage_sys_evt_handler) refers to nrf_fstorage_sd.o(i.queue_process) for queue_process
    nrf_fstorage_sd.o(i.nrf_fstorage_sys_evt_handler) refers to nrf_fstorage_sd.o(.bss) for .bss
    nrf_fstorage_sd.o(i.nrf_fstorage_sys_evt_handler) refers to nrf_fstorage_sd.o(.data) for .data
    nrf_fstorage_sd.o(i.queue_free) refers to nrf_atfifo.o(i.nrf_atfifo_item_free) for nrf_atfifo_item_free
    nrf_fstorage_sd.o(i.queue_free) refers to nrf_fstorage_sd.o(.data) for .data
    nrf_fstorage_sd.o(i.queue_free) refers to nrf_fstorage_sd.o(.constdata) for .constdata
    nrf_fstorage_sd.o(i.queue_process) refers to nrf_atfifo.o(i.nrf_atfifo_item_get) for nrf_atfifo_item_get
    nrf_fstorage_sd.o(i.queue_process) refers to nrf_fstorage_sd.o(i.event_send) for event_send
    nrf_fstorage_sd.o(i.queue_process) refers to nrf_fstorage_sd.o(i.queue_free) for queue_free
    nrf_fstorage_sd.o(i.queue_process) refers to nrf_fstorage_sd.o(i.nrf_fstorage_sys_evt_handler) for nrf_fstorage_sys_evt_handler
    nrf_fstorage_sd.o(i.queue_process) refers to nrf_fstorage_sd.o(.bss) for .bss
    nrf_fstorage_sd.o(i.queue_process) refers to nrf_fstorage_sd.o(.data) for .data
    nrf_fstorage_sd.o(i.queue_process) refers to nrf_fstorage_sd.o(.constdata) for .constdata
    nrf_fstorage_sd.o(i.queue_start) refers to nrf_atomic.o(i.nrf_atomic_flag_set_fetch) for nrf_atomic_flag_set_fetch
    nrf_fstorage_sd.o(i.queue_start) refers to nrf_fstorage_sd.o(i.queue_process) for queue_process
    nrf_fstorage_sd.o(i.queue_start) refers to nrf_fstorage_sd.o(.bss) for .bss
    nrf_fstorage_sd.o(i.read) refers to memcpya.o(.text) for __aeabi_memcpy
    nrf_fstorage_sd.o(i.uninit) refers to memseta.o(.text) for __aeabi_memclr4
    nrf_fstorage_sd.o(i.uninit) refers to nrf_atfifo.o(i.nrf_atfifo_clear) for nrf_atfifo_clear
    nrf_fstorage_sd.o(i.uninit) refers to nrf_fstorage_sd.o(.bss) for .bss
    nrf_fstorage_sd.o(i.uninit) refers to nrf_fstorage_sd.o(.constdata) for .constdata
    nrf_fstorage_sd.o(i.write) refers to nrf_atfifo.o(i.nrf_atfifo_item_alloc) for nrf_atfifo_item_alloc
    nrf_fstorage_sd.o(i.write) refers to memseta.o(.text) for __aeabi_memclr4
    nrf_fstorage_sd.o(i.write) refers to nrf_atfifo.o(i.nrf_atfifo_item_put) for nrf_atfifo_item_put
    nrf_fstorage_sd.o(i.write) refers to nrf_fstorage_sd.o(i.queue_start) for queue_start
    nrf_fstorage_sd.o(i.write) refers to nrf_fstorage_sd.o(.constdata) for .constdata
    nrf_fstorage_sd.o(.constdata) refers to nrf_fstorage_sd.o(.bss) for m_fifo_inst
    nrf_fstorage_sd.o(.constdata) refers to nrf_fstorage_sd.o(i.init) for init
    nrf_fstorage_sd.o(.constdata) refers to nrf_fstorage_sd.o(i.uninit) for uninit
    nrf_fstorage_sd.o(.constdata) refers to nrf_fstorage_sd.o(i.read) for read
    nrf_fstorage_sd.o(.constdata) refers to nrf_fstorage_sd.o(i.write) for write
    nrf_fstorage_sd.o(.constdata) refers to nrf_fstorage_sd.o(i.erase) for erase
    nrf_fstorage_sd.o(.constdata) refers to nrf_fstorage_sd.o(i.rmap) for rmap
    nrf_fstorage_sd.o(.constdata) refers to nrf_fstorage_sd.o(i.wmap) for wmap
    nrf_fstorage_sd.o(.constdata) refers to nrf_fstorage_sd.o(i.is_busy) for is_busy
    nrf_fstorage_sd.o(sdh_req_observers0) refers to nrf_fstorage_sd.o(i.nrf_fstorage_sdh_req_handler) for nrf_fstorage_sdh_req_handler
    nrf_fstorage_sd.o(sdh_soc_observers0) refers to nrf_fstorage_sd.o(i.nrf_fstorage_sys_evt_handler) for nrf_fstorage_sys_evt_handler
    nrf_fstorage_sd.o(sdh_state_observers0) refers to nrf_fstorage_sd.o(i.nrf_fstorage_sdh_state_handler) for nrf_fstorage_sdh_state_handler
    nrf_ringbuf.o(i.nrf_ringbuf_alloc) refers to nrf_atomic.o(i.nrf_atomic_flag_set_fetch) for nrf_atomic_flag_set_fetch
    nrf_ringbuf.o(i.nrf_ringbuf_alloc) refers to nrf_atomic.o(i.nrf_atomic_flag_clear) for nrf_atomic_flag_clear
    nrf_ringbuf.o(i.nrf_ringbuf_cpy_get) refers to nrf_atomic.o(i.nrf_atomic_flag_set_fetch) for nrf_atomic_flag_set_fetch
    nrf_ringbuf.o(i.nrf_ringbuf_cpy_get) refers to memcpya.o(.text) for __aeabi_memcpy
    nrf_ringbuf.o(i.nrf_ringbuf_cpy_get) refers to nrf_atomic.o(i.nrf_atomic_flag_clear) for nrf_atomic_flag_clear
    nrf_ringbuf.o(i.nrf_ringbuf_cpy_put) refers to nrf_atomic.o(i.nrf_atomic_flag_set_fetch) for nrf_atomic_flag_set_fetch
    nrf_ringbuf.o(i.nrf_ringbuf_cpy_put) refers to memcpya.o(.text) for __aeabi_memcpy
    nrf_ringbuf.o(i.nrf_ringbuf_cpy_put) refers to nrf_atomic.o(i.nrf_atomic_flag_clear) for nrf_atomic_flag_clear
    nrf_ringbuf.o(i.nrf_ringbuf_free) refers to nrf_atomic.o(i.nrf_atomic_flag_clear) for nrf_atomic_flag_clear
    nrf_ringbuf.o(i.nrf_ringbuf_get) refers to nrf_atomic.o(i.nrf_atomic_flag_set_fetch) for nrf_atomic_flag_set_fetch
    nrf_ringbuf.o(i.nrf_ringbuf_get) refers to nrf_atomic.o(i.nrf_atomic_flag_clear) for nrf_atomic_flag_clear
    nrf_ringbuf.o(i.nrf_ringbuf_put) refers to nrf_atomic.o(i.nrf_atomic_flag_clear_fetch) for nrf_atomic_flag_clear_fetch
    nrf_section_iter.o(i.nrf_section_iter_init) refers to nrf_section_iter.o(i.nrf_section_iter_item_set) for nrf_section_iter_item_set
    nrf_section_iter.o(i.nrf_section_iter_next) refers to nrf_section_iter.o(i.nrf_section_iter_item_set) for nrf_section_iter_item_set
    nrf_strerror.o(i.nrf_strerror_find) refers to nrf_strerror.o(.constdata) for .constdata
    nrf_strerror.o(i.nrf_strerror_get) refers to nrf_strerror.o(i.nrf_strerror_find) for nrf_strerror_find
    nrf_strerror.o(i.nrf_strerror_get) refers to nrf_strerror.o(.constdata) for .constdata
    nrf_strerror.o(.constdata) refers to nrf_strerror.o(.conststring) for .conststring
    sha256.o(i.sha256_final) refers to sha256.o(i.sha256_transform) for sha256_transform
    sha256.o(i.sha256_final) refers to memseta.o(.text) for __aeabi_memclr4
    sha256.o(i.sha256_transform) refers to sha256.o(.constdata) for .constdata
    sha256.o(i.sha256_update) refers to sha256.o(i.sha256_transform) for sha256_transform
    nrf_dfu_svci_handler.o(i.nrf_dfu_set_adv_name_handler) refers to nrf_dfu_svci_handler.o(i.nrf_dfu_set_adv_name_on_call) for nrf_dfu_set_adv_name_on_call
    nrf_dfu_svci_handler.o(i.nrf_dfu_set_adv_name_handler) refers to nrf_dfu_svci_handler.o(i.nrf_dfu_set_adv_name_on_sys_evt) for nrf_dfu_set_adv_name_on_sys_evt
    nrf_dfu_svci_handler.o(i.nrf_dfu_set_adv_name_on_call) refers to nrf_dfu_settings_svci.o(i.nrf_dfu_settings_adv_name_write) for nrf_dfu_settings_adv_name_write
    nrf_dfu_svci_handler.o(svc_data) refers to nrf_dfu_svci_handler.o(i.nrf_dfu_set_adv_name_handler) for nrf_dfu_set_adv_name_handler
    nrf_svc_handler.o(.emb_text) refers to nrf_svc_handler.o(i.nrf_svc_handler_c) for nrf_svc_handler_c
    nrf_sdh.o(i.SWI2_EGU2_IRQHandler) refers to nrf_sdh.o(i.nrf_sdh_evts_poll) for nrf_sdh_evts_poll
    nrf_sdh.o(i.nrf_sdh_disable_request) refers to nrf_sdh.o(i.sdh_request_observer_notify) for sdh_request_observer_notify
    nrf_sdh.o(i.nrf_sdh_disable_request) refers to nrf_sdh.o(i.sdh_state_observer_notify) for sdh_state_observer_notify
    nrf_sdh.o(i.nrf_sdh_disable_request) refers to app_util_platform.o(i.app_util_critical_region_enter) for app_util_critical_region_enter
    nrf_sdh.o(i.nrf_sdh_disable_request) refers to app_util_platform.o(i.app_util_critical_region_exit) for app_util_critical_region_exit
    nrf_sdh.o(i.nrf_sdh_disable_request) refers to nrf_sdh.o(i.softdevice_evt_irq_disable) for softdevice_evt_irq_disable
    nrf_sdh.o(i.nrf_sdh_disable_request) refers to nrf_sdh.o(.data) for .data
    nrf_sdh.o(i.nrf_sdh_enable_request) refers to nrf_sdh.o(i.sdh_request_observer_notify) for sdh_request_observer_notify
    nrf_sdh.o(i.nrf_sdh_enable_request) refers to nrf_sdh.o(i.sdh_state_observer_notify) for sdh_state_observer_notify
    nrf_sdh.o(i.nrf_sdh_enable_request) refers to app_util_platform.o(i.app_util_critical_region_enter) for app_util_critical_region_enter
    nrf_sdh.o(i.nrf_sdh_enable_request) refers to app_util_platform.o(i.app_util_critical_region_exit) for app_util_critical_region_exit
    nrf_sdh.o(i.nrf_sdh_enable_request) refers to nrf_sdh.o(i.softdevices_evt_irq_enable) for softdevices_evt_irq_enable
    nrf_sdh.o(i.nrf_sdh_enable_request) refers to nrf_sdh.o(.data) for .data
    nrf_sdh.o(i.nrf_sdh_enable_request) refers to nrf_sdh.o(.constdata) for .constdata
    nrf_sdh.o(i.nrf_sdh_enable_request) refers to main.o(i.app_error_fault_handler) for app_error_fault_handler
    nrf_sdh.o(i.nrf_sdh_evts_poll) refers to nrf_section_iter.o(i.nrf_section_iter_init) for nrf_section_iter_init
    nrf_sdh.o(i.nrf_sdh_evts_poll) refers to nrf_section_iter.o(i.nrf_section_iter_next) for nrf_section_iter_next
    nrf_sdh.o(i.nrf_sdh_evts_poll) refers to nrf_sdh.o(.constdata) for .constdata
    nrf_sdh.o(i.nrf_sdh_is_enabled) refers to nrf_sdh.o(.data) for .data
    nrf_sdh.o(i.nrf_sdh_is_suspended) refers to nrf_sdh.o(.data) for .data
    nrf_sdh.o(i.nrf_sdh_request_continue) refers to nrf_sdh.o(i.nrf_sdh_disable_request) for nrf_sdh_disable_request
    nrf_sdh.o(i.nrf_sdh_request_continue) refers to nrf_sdh.o(i.nrf_sdh_enable_request) for nrf_sdh_enable_request
    nrf_sdh.o(i.nrf_sdh_request_continue) refers to nrf_sdh.o(.data) for .data
    nrf_sdh.o(i.nrf_sdh_resume) refers to nrf_sdh.o(i.__sd_nvic_app_accessible_irq) for __sd_nvic_app_accessible_irq
    nrf_sdh.o(i.nrf_sdh_resume) refers to main.o(i.app_error_handler_bare) for app_error_handler_bare
    nrf_sdh.o(i.nrf_sdh_resume) refers to nrf_sdh.o(i.softdevices_evt_irq_enable) for softdevices_evt_irq_enable
    nrf_sdh.o(i.nrf_sdh_resume) refers to nrf_sdh.o(.data) for .data
    nrf_sdh.o(i.nrf_sdh_suspend) refers to nrf_sdh.o(i.softdevice_evt_irq_disable) for softdevice_evt_irq_disable
    nrf_sdh.o(i.nrf_sdh_suspend) refers to nrf_sdh.o(.data) for .data
    nrf_sdh.o(i.sdh_request_observer_notify) refers to nrf_section_iter.o(i.nrf_section_iter_init) for nrf_section_iter_init
    nrf_sdh.o(i.sdh_request_observer_notify) refers to nrf_section_iter.o(i.nrf_section_iter_next) for nrf_section_iter_next
    nrf_sdh.o(i.sdh_request_observer_notify) refers to nrf_sdh.o(.constdata) for .constdata
    nrf_sdh.o(i.sdh_state_observer_notify) refers to nrf_section_iter.o(i.nrf_section_iter_init) for nrf_section_iter_init
    nrf_sdh.o(i.sdh_state_observer_notify) refers to nrf_section_iter.o(i.nrf_section_iter_next) for nrf_section_iter_next
    nrf_sdh.o(i.sdh_state_observer_notify) refers to nrf_sdh.o(.constdata) for .constdata
    nrf_sdh.o(i.softdevice_evt_irq_disable) refers to nrf_sdh.o(i.__sd_nvic_app_accessible_irq) for __sd_nvic_app_accessible_irq
    nrf_sdh.o(i.softdevice_evt_irq_disable) refers to main.o(i.app_error_handler_bare) for app_error_handler_bare
    nrf_sdh.o(i.softdevice_evt_irq_disable) refers to app_util_platform.o(.bss) for nrf_nvic_state
    nrf_sdh.o(i.softdevices_evt_irq_enable) refers to nrf_sdh.o(i.__sd_nvic_app_accessible_irq) for __sd_nvic_app_accessible_irq
    nrf_sdh.o(i.softdevices_evt_irq_enable) refers to main.o(i.app_error_handler_bare) for app_error_handler_bare
    nrf_sdh.o(i.softdevices_evt_irq_enable) refers to app_util_platform.o(.bss) for nrf_nvic_state
    nrf_sdh.o(.constdata) refers to nrf_sdh.o(.constdata) for sdh_req_observers_array
    nrf_sdh.o(.constdata) refers to nrf_sdh.o(.constdata) for sdh_state_observers_array
    nrf_sdh.o(.constdata) refers to nrf_sdh.o(.constdata) for sdh_stack_observers_array
    nrf_sdh_ble.o(i.nrf_sdh_ble_app_ram_start_get) refers to nrf_sdh_ble.o(.constdata) for .constdata
    nrf_sdh_ble.o(i.nrf_sdh_ble_default_cfg_set) refers to nrf_sdh_ble.o(i.nrf_sdh_ble_app_ram_start_get) for nrf_sdh_ble_app_ram_start_get
    nrf_sdh_ble.o(i.nrf_sdh_ble_enable) refers to nrf_sdh_ble.o(.data) for .data
    nrf_sdh_ble.o(i.nrf_sdh_ble_evts_poll) refers to main.o(i.app_error_handler_bare) for app_error_handler_bare
    nrf_sdh_ble.o(i.nrf_sdh_ble_evts_poll) refers to nrf_section_iter.o(i.nrf_section_iter_init) for nrf_section_iter_init
    nrf_sdh_ble.o(i.nrf_sdh_ble_evts_poll) refers to nrf_section_iter.o(i.nrf_section_iter_next) for nrf_section_iter_next
    nrf_sdh_ble.o(i.nrf_sdh_ble_evts_poll) refers to nrf_sdh_ble.o(.data) for .data
    nrf_sdh_ble.o(i.nrf_sdh_ble_evts_poll) refers to nrf_sdh_ble.o(.constdata) for .constdata
    nrf_sdh_ble.o(.constdata) refers to nrf_sdh_ble.o(.constdata) for sdh_ble_observers_array
    nrf_sdh_ble.o(sdh_stack_observers0) refers to nrf_sdh_ble.o(i.nrf_sdh_ble_evts_poll) for nrf_sdh_ble_evts_poll
    nrf_sdh_soc.o(i.nrf_sdh_soc_evts_poll) refers to main.o(i.app_error_handler_bare) for app_error_handler_bare
    nrf_sdh_soc.o(i.nrf_sdh_soc_evts_poll) refers to nrf_section_iter.o(i.nrf_section_iter_init) for nrf_section_iter_init
    nrf_sdh_soc.o(i.nrf_sdh_soc_evts_poll) refers to nrf_section_iter.o(i.nrf_section_iter_next) for nrf_section_iter_next
    nrf_sdh_soc.o(i.nrf_sdh_soc_evts_poll) refers to nrf_sdh_soc.o(.constdata) for .constdata
    nrf_sdh_soc.o(.constdata) refers to nrf_sdh_soc.o(.constdata) for sdh_soc_observers_array
    nrf_sdh_soc.o(sdh_stack_observers0) refers to nrf_sdh_soc.o(i.nrf_sdh_soc_evts_poll) for nrf_sdh_soc_evts_poll
    pb_common.o(i.pb_field_iter_find) refers to pb_common.o(i.pb_field_iter_next) for pb_field_iter_next
    pb_common.o(i.pb_field_iter_next) refers to pb_common.o(i.pb_field_iter_begin) for pb_field_iter_begin
    pb_decode.o(i.decode_callback_field) refers to pb_decode.o(i.read_raw_value) for read_raw_value
    pb_decode.o(i.decode_callback_field) refers to pb_decode.o(i.pb_istream_from_buffer) for pb_istream_from_buffer
    pb_decode.o(i.decode_callback_field) refers to pb_decode.o(i.pb_skip_field) for pb_skip_field
    pb_decode.o(i.decode_callback_field) refers to pb_decode.o(i.pb_make_string_substream) for pb_make_string_substream
    pb_decode.o(i.decode_field) refers to pb_decode.o(i.decode_static_field) for decode_static_field
    pb_decode.o(i.decode_field) refers to pb_decode.o(i.decode_callback_field) for decode_callback_field
    pb_decode.o(i.decode_static_field) refers to pb_decode.o(i.pb_make_string_substream) for pb_make_string_substream
    pb_decode.o(i.decode_static_field) refers to memseta.o(.text) for __aeabi_memclr
    pb_decode.o(i.decode_static_field) refers to pb_decode.o(i.pb_message_set_to_defaults) for pb_message_set_to_defaults
    pb_decode.o(i.decode_static_field) refers to pb_decode.o(.constdata) for .constdata
    pb_decode.o(i.iter_from_extension) refers to pb_common.o(i.pb_field_iter_begin) for pb_field_iter_begin
    pb_decode.o(i.pb_dec_bytes) refers to pb_decode.o(i.pb_decode_varint32) for pb_decode_varint32
    pb_decode.o(i.pb_dec_bytes) refers to pb_decode.o(i.pb_read) for pb_read
    pb_decode.o(i.pb_dec_fixed32) refers to pb_decode.o(i.pb_decode_fixed32) for pb_decode_fixed32
    pb_decode.o(i.pb_dec_fixed64) refers to pb_decode.o(i.pb_decode_fixed64) for pb_decode_fixed64
    pb_decode.o(i.pb_dec_string) refers to pb_decode.o(i.pb_decode_varint32) for pb_decode_varint32
    pb_decode.o(i.pb_dec_string) refers to pb_decode.o(i.pb_read) for pb_read
    pb_decode.o(i.pb_dec_submessage) refers to pb_decode.o(i.pb_make_string_substream) for pb_make_string_substream
    pb_decode.o(i.pb_dec_submessage) refers to pb_decode.o(i.pb_decode_noinit) for pb_decode_noinit
    pb_decode.o(i.pb_dec_submessage) refers to pb_decode.o(i.pb_decode) for pb_decode
    pb_decode.o(i.pb_dec_svarint) refers to pb_decode.o(i.pb_decode_svarint) for pb_decode_svarint
    pb_decode.o(i.pb_dec_uvarint) refers to pb_decode.o(i.pb_decode_varint) for pb_decode_varint
    pb_decode.o(i.pb_dec_varint) refers to pb_decode.o(i.pb_decode_varint) for pb_decode_varint
    pb_decode.o(i.pb_decode) refers to pb_decode.o(i.pb_message_set_to_defaults) for pb_message_set_to_defaults
    pb_decode.o(i.pb_decode) refers to pb_decode.o(i.pb_decode_noinit) for pb_decode_noinit
    pb_decode.o(i.pb_decode_delimited) refers to pb_decode.o(i.pb_make_string_substream) for pb_make_string_substream
    pb_decode.o(i.pb_decode_delimited) refers to pb_decode.o(i.pb_decode) for pb_decode
    pb_decode.o(i.pb_decode_fixed32) refers to pb_decode.o(i.pb_read) for pb_read
    pb_decode.o(i.pb_decode_fixed64) refers to pb_decode.o(i.pb_read) for pb_read
    pb_decode.o(i.pb_decode_noinit) refers to pb_common.o(i.pb_field_iter_begin) for pb_field_iter_begin
    pb_decode.o(i.pb_decode_noinit) refers to pb_decode.o(i.pb_decode_tag) for pb_decode_tag
    pb_decode.o(i.pb_decode_noinit) refers to pb_common.o(i.pb_field_iter_find) for pb_field_iter_find
    pb_decode.o(i.pb_decode_noinit) refers to pb_common.o(i.pb_field_iter_next) for pb_field_iter_next
    pb_decode.o(i.pb_decode_noinit) refers to pb_decode.o(i.iter_from_extension) for iter_from_extension
    pb_decode.o(i.pb_decode_noinit) refers to pb_decode.o(i.decode_field) for decode_field
    pb_decode.o(i.pb_decode_noinit) refers to pb_decode.o(i.pb_skip_field) for pb_skip_field
    pb_decode.o(i.pb_decode_svarint) refers to pb_decode.o(i.pb_decode_varint) for pb_decode_varint
    pb_decode.o(i.pb_decode_tag) refers to pb_decode.o(i.pb_decode_varint32) for pb_decode_varint32
    pb_decode.o(i.pb_decode_varint) refers to pb_decode.o(i.pb_readbyte) for pb_readbyte
    pb_decode.o(i.pb_decode_varint) refers to llshl.o(.text) for __aeabi_llsl
    pb_decode.o(i.pb_decode_varint32) refers to pb_decode.o(i.pb_readbyte) for pb_readbyte
    pb_decode.o(i.pb_field_set_to_default) refers to pb_decode.o(i.iter_from_extension) for iter_from_extension
    pb_decode.o(i.pb_field_set_to_default) refers to memcpya.o(.text) for __aeabi_memcpy
    pb_decode.o(i.pb_field_set_to_default) refers to pb_decode.o(i.pb_message_set_to_defaults) for pb_message_set_to_defaults
    pb_decode.o(i.pb_field_set_to_default) refers to memseta.o(.text) for __aeabi_memclr
    pb_decode.o(i.pb_istream_from_buffer) refers to pb_decode.o(i.buf_read) for buf_read
    pb_decode.o(i.pb_make_string_substream) refers to pb_decode.o(i.pb_decode_varint32) for pb_decode_varint32
    pb_decode.o(i.pb_message_set_to_defaults) refers to pb_common.o(i.pb_field_iter_begin) for pb_field_iter_begin
    pb_decode.o(i.pb_message_set_to_defaults) refers to pb_decode.o(i.pb_field_set_to_default) for pb_field_set_to_default
    pb_decode.o(i.pb_message_set_to_defaults) refers to pb_common.o(i.pb_field_iter_next) for pb_field_iter_next
    pb_decode.o(i.pb_read) refers to pb_decode.o(i.buf_read) for buf_read
    pb_decode.o(i.pb_skip_field) refers to pb_decode.o(i.pb_read) for pb_read
    pb_decode.o(i.pb_skip_field) refers to pb_decode.o(i.pb_decode_varint32) for pb_decode_varint32
    pb_decode.o(i.read_raw_value) refers to pb_decode.o(i.pb_read) for pb_read
    pb_decode.o(.constdata) refers to pb_decode.o(i.pb_dec_varint) for pb_dec_varint
    pb_decode.o(.constdata) refers to pb_decode.o(i.pb_dec_uvarint) for pb_dec_uvarint
    pb_decode.o(.constdata) refers to pb_decode.o(i.pb_dec_svarint) for pb_dec_svarint
    pb_decode.o(.constdata) refers to pb_decode.o(i.pb_dec_fixed32) for pb_dec_fixed32
    pb_decode.o(.constdata) refers to pb_decode.o(i.pb_dec_fixed64) for pb_dec_fixed64
    pb_decode.o(.constdata) refers to pb_decode.o(i.pb_dec_bytes) for pb_dec_bytes
    pb_decode.o(.constdata) refers to pb_decode.o(i.pb_dec_string) for pb_dec_string
    pb_decode.o(.constdata) refers to pb_decode.o(i.pb_dec_submessage) for pb_dec_submessage
    arm_startup_nrf52820.o(RESET) refers to arm_startup_nrf52820.o(STACK) for __initial_sp
    arm_startup_nrf52820.o(RESET) refers to arm_startup_nrf52820.o(.text) for Reset_Handler
    arm_startup_nrf52820.o(RESET) refers to nrf_svc_handler.o(.emb_text) for SVC_Handler
    arm_startup_nrf52820.o(RESET) refers to nrf_bootloader_wdt.o(i.WDT_IRQHandler) for WDT_IRQHandler
    arm_startup_nrf52820.o(RESET) refers to nrf_bootloader_dfu_timers.o(i.RTC1_IRQHandler) for RTC1_IRQHandler
    arm_startup_nrf52820.o(RESET) refers to nrf_sdh.o(i.SWI2_EGU2_IRQHandler) for SWI2_EGU2_IRQHandler
    arm_startup_nrf52820.o(.text) refers to system_nrf52820.o(i.SystemInit) for SystemInit
    arm_startup_nrf52820.o(.text) refers to entry.o(.ARM.Collect$$$$00000000) for __main
    system_nrf52820.o(i.SystemCoreClockUpdate) refers to system_nrf52820.o(.data) for .data
    system_nrf52820.o(i.SystemInit) refers to system_nrf52820.o(.data) for .data
    uECC.c.o(.text.update_V) refers to uECC.c.o(.text.HMAC_init) for HMAC_init
    uECC.c.o(.text.update_V) refers to uECC.c.o(.text.HMAC_update) for HMAC_update
    uECC.c.o(.text.update_V) refers to uECC.c.o(.text.HMAC_finish) for HMAC_finish
    uECC.c.o(.text.omega_mult_secp256k1) refers to uECC.c.o(.text.uECC_vli_add) for uECC_vli_add
    uECC.c.o(.text.uECC_set_rng) refers to uECC.c.o(.bss.g_rng_function) for [Anonymous Symbol]
    uECC.c.o(.text.uECC_get_rng) refers to uECC.c.o(.bss.g_rng_function) for [Anonymous Symbol]
    uECC.c.o(.text.vli_mmod_fast_secp256k1) refers to uECC.c.o(.text.uECC_vli_clear) for uECC_vli_clear
    uECC.c.o(.text.vli_mmod_fast_secp256k1) refers to uECC.c.o(.text.omega_mult_secp256k1) for omega_mult_secp256k1
    uECC.c.o(.text.vli_mmod_fast_secp256k1) refers to uECC.c.o(.text.uECC_vli_add) for uECC_vli_add
    uECC.c.o(.text.vli_mmod_fast_secp256k1) refers to uECC.c.o(.text.uECC_vli_sub) for uECC_vli_sub
    uECC.c.o(.text.vli_mmod_fast_secp256k1) refers to uECC.c.o(.text.uECC_vli_cmp_unsafe) for uECC_vli_cmp_unsafe
    uECC.c.o(.text.vli_mmod_fast_secp256k1) refers to uECC.c.o(.rodata.curve_secp256k1) for [Anonymous Symbol]
    uECC.c.o(.text.bits2int) refers to uECC.c.o(.text.uECC_vli_clear) for uECC_vli_clear
    uECC.c.o(.text.bits2int) refers to uECC.c.o(.text.bcopy) for bcopy
    uECC.c.o(.text.bits2int) refers to uECC.c.o(.text.uECC_vli_cmp_unsafe) for uECC_vli_cmp_unsafe
    uECC.c.o(.text.bits2int) refers to uECC.c.o(.text.uECC_vli_sub) for uECC_vli_sub
    uECC.c.o(.text.regularize_k) refers to uECC.c.o(.text.uECC_vli_add) for uECC_vli_add
    uECC.c.o(.text.regularize_k) refers to uECC.c.o(.text.uECC_vli_testBit) for uECC_vli_testBit
    uECC.c.o(.text.vli_mmod_fast_secp192r1) refers to uECC.c.o(.text.uECC_vli_set) for uECC_vli_set
    uECC.c.o(.text.vli_mmod_fast_secp192r1) refers to uECC.c.o(.text.uECC_vli_add) for uECC_vli_add
    uECC.c.o(.text.vli_mmod_fast_secp192r1) refers to uECC.c.o(.text.uECC_vli_sub) for uECC_vli_sub
    uECC.c.o(.text.vli_mmod_fast_secp192r1) refers to uECC.c.o(.text.uECC_vli_cmp_unsafe) for uECC_vli_cmp_unsafe
    uECC.c.o(.text.vli_mmod_fast_secp192r1) refers to uECC.c.o(.rodata.curve_secp192r1) for [Anonymous Symbol]
    uECC.c.o(.text.vli_mmod_fast_secp224r1) refers to uECC.c.o(.text.uECC_vli_set) for uECC_vli_set
    uECC.c.o(.text.vli_mmod_fast_secp224r1) refers to uECC.c.o(.text.uECC_vli_add) for uECC_vli_add
    uECC.c.o(.text.vli_mmod_fast_secp224r1) refers to uECC.c.o(.text.uECC_vli_sub) for uECC_vli_sub
    uECC.c.o(.text.vli_mmod_fast_secp224r1) refers to uECC.c.o(.text.uECC_vli_cmp_unsafe) for uECC_vli_cmp_unsafe
    uECC.c.o(.text.vli_mmod_fast_secp224r1) refers to uECC.c.o(.rodata.curve_secp224r1) for [Anonymous Symbol]
    uECC.c.o(.text.vli_mmod_fast_secp256r1) refers to uECC.c.o(.text.uECC_vli_set) for uECC_vli_set
    uECC.c.o(.text.vli_mmod_fast_secp256r1) refers to uECC.c.o(.text.uECC_vli_add) for uECC_vli_add
    uECC.c.o(.text.vli_mmod_fast_secp256r1) refers to uECC.c.o(.text.uECC_vli_sub) for uECC_vli_sub
    uECC.c.o(.text.vli_mmod_fast_secp256r1) refers to uECC.c.o(.text.uECC_vli_cmp_unsafe) for uECC_vli_cmp_unsafe
    uECC.c.o(.text.vli_mmod_fast_secp256r1) refers to uECC.c.o(.rodata.curve_secp256r1) for [Anonymous Symbol]
    uECC.c.o(.text.uECC_vli_cmp) refers to uECC.c.o(.text.uECC_vli_sub) for uECC_vli_sub
    uECC.c.o(.text.uECC_vli_cmp) refers to uECC.c.o(.text.uECC_vli_isZero) for uECC_vli_isZero
    uECC.c.o(.text.vli_modInv_update) refers to uECC.c.o(.text.uECC_vli_add) for uECC_vli_add
    uECC.c.o(.text.vli_modInv_update) refers to uECC.c.o(.text.uECC_vli_rshift1) for uECC_vli_rshift1
    uECC.c.o(.text.omega_mult_secp160r1) refers to uECC.c.o(.text.uECC_vli_set) for uECC_vli_set
    uECC.c.o(.text.omega_mult_secp160r1) refers to uECC.c.o(.text.uECC_vli_rshift1) for uECC_vli_rshift1
    uECC.c.o(.text.omega_mult_secp160r1) refers to uECC.c.o(.text.uECC_vli_add) for uECC_vli_add
    uECC.c.o(.text.vli_mmod_fast_secp160r1) refers to uECC.c.o(.text.uECC_vli_clear) for uECC_vli_clear
    uECC.c.o(.text.vli_mmod_fast_secp160r1) refers to uECC.c.o(.text.omega_mult_secp160r1) for omega_mult_secp160r1
    uECC.c.o(.text.vli_mmod_fast_secp160r1) refers to uECC.c.o(.text.uECC_vli_add) for uECC_vli_add
    uECC.c.o(.text.vli_mmod_fast_secp160r1) refers to uECC.c.o(.text.uECC_vli_sub) for uECC_vli_sub
    uECC.c.o(.text.vli_mmod_fast_secp160r1) refers to uECC.c.o(.text.uECC_vli_cmp_unsafe) for uECC_vli_cmp_unsafe
    uECC.c.o(.text.vli_mmod_fast_secp160r1) refers to uECC.c.o(.rodata.curve_secp160r1) for [Anonymous Symbol]
    uECC.c.o(.text.uECC_vli_modAdd) refers to uECC.c.o(.text.uECC_vli_add) for uECC_vli_add
    uECC.c.o(.text.uECC_vli_modAdd) refers to uECC.c.o(.text.uECC_vli_cmp_unsafe) for uECC_vli_cmp_unsafe
    uECC.c.o(.text.uECC_vli_modAdd) refers to uECC.c.o(.text.uECC_vli_sub) for uECC_vli_sub
    uECC.c.o(.text.uECC_vli_modSub) refers to uECC.c.o(.text.uECC_vli_sub) for uECC_vli_sub
    uECC.c.o(.text.uECC_vli_modSub) refers to uECC.c.o(.text.uECC_vli_add) for uECC_vli_add
    uECC.c.o(.text.uECC_vli_mmod) refers to uECC.c.o(.text.uECC_vli_numBits) for uECC_vli_numBits
    uECC.c.o(.text.uECC_vli_mmod) refers to uECC.c.o(.text.uECC_vli_clear) for uECC_vli_clear
    uECC.c.o(.text.uECC_vli_mmod) refers to uECC.c.o(.text.uECC_vli_set) for uECC_vli_set
    uECC.c.o(.text.uECC_vli_mmod) refers to uECC.c.o(.text.uECC_vli_rshift1) for uECC_vli_rshift1
    uECC.c.o(.text.uECC_vli_modMult) refers to uECC.c.o(.text.uECC_vli_mult) for uECC_vli_mult
    uECC.c.o(.text.uECC_vli_modMult) refers to uECC.c.o(.text.uECC_vli_mmod) for uECC_vli_mmod
    uECC.c.o(.text.uECC_vli_modMult_fast) refers to uECC.c.o(.text.uECC_vli_mult) for uECC_vli_mult
    uECC.c.o(.text.uECC_vli_modSquare) refers to uECC.c.o(.text.uECC_vli_square) for uECC_vli_square
    uECC.c.o(.text.uECC_vli_modSquare) refers to uECC.c.o(.text.uECC_vli_mmod) for uECC_vli_mmod
    uECC.c.o(.text.uECC_vli_modSquare_fast) refers to uECC.c.o(.text.uECC_vli_square) for uECC_vli_square
    uECC.c.o(.text.x_side_default) refers to memseta.o(.text) for memset
    uECC.c.o(.text.x_side_default) refers to uECC.c.o(.text.uECC_vli_modSquare_fast) for uECC_vli_modSquare_fast
    uECC.c.o(.text.x_side_default) refers to uECC.c.o(.text.uECC_vli_modSub) for uECC_vli_modSub
    uECC.c.o(.text.x_side_default) refers to uECC.c.o(.text.uECC_vli_modMult_fast) for uECC_vli_modMult_fast
    uECC.c.o(.text.x_side_default) refers to uECC.c.o(.text.uECC_vli_modAdd) for uECC_vli_modAdd
    uECC.c.o(.text.double_jacobian_default) refers to uECC.c.o(.text.uECC_vli_isZero) for uECC_vli_isZero
    uECC.c.o(.text.double_jacobian_default) refers to uECC.c.o(.text.uECC_vli_modSquare_fast) for uECC_vli_modSquare_fast
    uECC.c.o(.text.double_jacobian_default) refers to uECC.c.o(.text.uECC_vli_modMult_fast) for uECC_vli_modMult_fast
    uECC.c.o(.text.double_jacobian_default) refers to uECC.c.o(.text.uECC_vli_modAdd) for uECC_vli_modAdd
    uECC.c.o(.text.double_jacobian_default) refers to uECC.c.o(.text.uECC_vli_modSub) for uECC_vli_modSub
    uECC.c.o(.text.double_jacobian_default) refers to uECC.c.o(.text.uECC_vli_add) for uECC_vli_add
    uECC.c.o(.text.double_jacobian_default) refers to uECC.c.o(.text.uECC_vli_rshift1) for uECC_vli_rshift1
    uECC.c.o(.text.double_jacobian_default) refers to uECC.c.o(.text.uECC_vli_set) for uECC_vli_set
    uECC.c.o(.text.x_side_secp256k1) refers to uECC.c.o(.text.uECC_vli_modSquare_fast) for uECC_vli_modSquare_fast
    uECC.c.o(.text.x_side_secp256k1) refers to uECC.c.o(.text.uECC_vli_modMult_fast) for uECC_vli_modMult_fast
    uECC.c.o(.text.x_side_secp256k1) refers to uECC.c.o(.text.uECC_vli_modAdd) for uECC_vli_modAdd
    uECC.c.o(.text.double_jacobian_secp256k1) refers to uECC.c.o(.text.uECC_vli_isZero) for uECC_vli_isZero
    uECC.c.o(.text.double_jacobian_secp256k1) refers to uECC.c.o(.text.uECC_vli_modSquare_fast) for uECC_vli_modSquare_fast
    uECC.c.o(.text.double_jacobian_secp256k1) refers to uECC.c.o(.text.uECC_vli_modMult_fast) for uECC_vli_modMult_fast
    uECC.c.o(.text.double_jacobian_secp256k1) refers to uECC.c.o(.text.uECC_vli_modAdd) for uECC_vli_modAdd
    uECC.c.o(.text.double_jacobian_secp256k1) refers to uECC.c.o(.text.uECC_vli_add) for uECC_vli_add
    uECC.c.o(.text.double_jacobian_secp256k1) refers to uECC.c.o(.text.uECC_vli_rshift1) for uECC_vli_rshift1
    uECC.c.o(.text.double_jacobian_secp256k1) refers to uECC.c.o(.text.uECC_vli_modSub) for uECC_vli_modSub
    uECC.c.o(.text.XYcZ_addC) refers to uECC.c.o(.text.uECC_vli_modSub) for uECC_vli_modSub
    uECC.c.o(.text.XYcZ_addC) refers to uECC.c.o(.text.uECC_vli_modSquare_fast) for uECC_vli_modSquare_fast
    uECC.c.o(.text.XYcZ_addC) refers to uECC.c.o(.text.uECC_vli_modMult_fast) for uECC_vli_modMult_fast
    uECC.c.o(.text.XYcZ_addC) refers to uECC.c.o(.text.uECC_vli_modAdd) for uECC_vli_modAdd
    uECC.c.o(.text.XYcZ_addC) refers to uECC.c.o(.text.uECC_vli_set) for uECC_vli_set
    uECC.c.o(.text.XYcZ_add) refers to uECC.c.o(.text.uECC_vli_modSub) for uECC_vli_modSub
    uECC.c.o(.text.XYcZ_add) refers to uECC.c.o(.text.uECC_vli_modSquare_fast) for uECC_vli_modSquare_fast
    uECC.c.o(.text.XYcZ_add) refers to uECC.c.o(.text.uECC_vli_modMult_fast) for uECC_vli_modMult_fast
    uECC.c.o(.text.XYcZ_add) refers to uECC.c.o(.text.uECC_vli_set) for uECC_vli_set
    uECC.c.o(.text.apply_z) refers to uECC.c.o(.text.uECC_vli_modSquare_fast) for uECC_vli_modSquare_fast
    uECC.c.o(.text.apply_z) refers to uECC.c.o(.text.uECC_vli_modMult_fast) for uECC_vli_modMult_fast
    uECC.c.o(.text.uECC_vli_modInv) refers to uECC.c.o(.text.uECC_vli_isZero) for uECC_vli_isZero
    uECC.c.o(.text.uECC_vli_modInv) refers to uECC.c.o(.text.uECC_vli_clear) for uECC_vli_clear
    uECC.c.o(.text.uECC_vli_modInv) refers to uECC.c.o(.text.uECC_vli_set) for uECC_vli_set
    uECC.c.o(.text.uECC_vli_modInv) refers to uECC.c.o(.text.uECC_vli_cmp_unsafe) for uECC_vli_cmp_unsafe
    uECC.c.o(.text.uECC_vli_modInv) refers to uECC.c.o(.text.uECC_vli_rshift1) for uECC_vli_rshift1
    uECC.c.o(.text.uECC_vli_modInv) refers to uECC.c.o(.text.uECC_vli_sub) for uECC_vli_sub
    uECC.c.o(.text.uECC_vli_modInv) refers to uECC.c.o(.text.uECC_vli_add) for uECC_vli_add
    uECC.c.o(.text.uECC_vli_modInv) refers to uECC.c.o(.text.vli_modInv_update) for vli_modInv_update
    uECC.c.o(.text.EccPoint_mult) refers to uECC.c.o(.text.uECC_vli_set) for uECC_vli_set
    uECC.c.o(.text.EccPoint_mult) refers to uECC.c.o(.text.uECC_vli_clear) for uECC_vli_clear
    uECC.c.o(.text.EccPoint_mult) refers to uECC.c.o(.text.apply_z) for apply_z
    uECC.c.o(.text.EccPoint_mult) refers to uECC.c.o(.text.uECC_vli_testBit) for uECC_vli_testBit
    uECC.c.o(.text.EccPoint_mult) refers to uECC.c.o(.text.XYcZ_addC) for XYcZ_addC
    uECC.c.o(.text.EccPoint_mult) refers to uECC.c.o(.text.XYcZ_add) for XYcZ_add
    uECC.c.o(.text.EccPoint_mult) refers to uECC.c.o(.text.uECC_vli_modSub) for uECC_vli_modSub
    uECC.c.o(.text.EccPoint_mult) refers to uECC.c.o(.text.uECC_vli_modMult_fast) for uECC_vli_modMult_fast
    uECC.c.o(.text.EccPoint_mult) refers to uECC.c.o(.text.uECC_vli_modInv) for uECC_vli_modInv
    uECC.c.o(.text.EccPoint_compute_public_key) refers to uECC.c.o(.text.regularize_k) for regularize_k
    uECC.c.o(.text.EccPoint_compute_public_key) refers to uECC.c.o(.text.EccPoint_mult) for EccPoint_mult
    uECC.c.o(.text.EccPoint_compute_public_key) refers to uECC.c.o(.text.uECC_vli_isZero) for uECC_vli_isZero
    uECC.c.o(.text.uECC_secp160r1) refers to uECC.c.o(.rodata.curve_secp160r1) for [Anonymous Symbol]
    uECC.c.o(.text.uECC_secp192r1) refers to uECC.c.o(.rodata.curve_secp192r1) for [Anonymous Symbol]
    uECC.c.o(.text.uECC_secp224r1) refers to uECC.c.o(.rodata.curve_secp224r1) for [Anonymous Symbol]
    uECC.c.o(.text.uECC_secp256r1) refers to uECC.c.o(.rodata.curve_secp256r1) for [Anonymous Symbol]
    uECC.c.o(.text.uECC_secp256k1) refers to uECC.c.o(.rodata.curve_secp256k1) for [Anonymous Symbol]
    uECC.c.o(.text.uECC_vli_bytesToNative) refers to uECC.c.o(.text.uECC_vli_clear) for uECC_vli_clear
    uECC.c.o(.text.uECC_generate_random_int) refers to uECC.c.o(.text.uECC_vli_numBits) for uECC_vli_numBits
    uECC.c.o(.text.uECC_generate_random_int) refers to uECC.c.o(.text.uECC_vli_isZero) for uECC_vli_isZero
    uECC.c.o(.text.uECC_generate_random_int) refers to uECC.c.o(.text.uECC_vli_cmp) for uECC_vli_cmp
    uECC.c.o(.text.uECC_generate_random_int) refers to uECC.c.o(.bss.g_rng_function) for [Anonymous Symbol]
    uECC.c.o(.text.uECC_sign_with_k) refers to uECC.c.o(.text.uECC_vli_isZero) for uECC_vli_isZero
    uECC.c.o(.text.uECC_sign_with_k) refers to uECC.c.o(.text.uECC_vli_cmp) for uECC_vli_cmp
    uECC.c.o(.text.uECC_sign_with_k) refers to uECC.c.o(.text.regularize_k) for regularize_k
    uECC.c.o(.text.uECC_sign_with_k) refers to uECC.c.o(.text.EccPoint_mult) for EccPoint_mult
    uECC.c.o(.text.uECC_sign_with_k) refers to uECC.c.o(.text.uECC_vli_clear) for uECC_vli_clear
    uECC.c.o(.text.uECC_sign_with_k) refers to uECC.c.o(.text.uECC_generate_random_int) for uECC_generate_random_int
    uECC.c.o(.text.uECC_sign_with_k) refers to uECC.c.o(.text.uECC_vli_modMult) for uECC_vli_modMult
    uECC.c.o(.text.uECC_sign_with_k) refers to uECC.c.o(.text.uECC_vli_modInv) for uECC_vli_modInv
    uECC.c.o(.text.uECC_sign_with_k) refers to uECC.c.o(.text.bcopy) for bcopy
    uECC.c.o(.text.uECC_sign_with_k) refers to uECC.c.o(.text.uECC_vli_set) for uECC_vli_set
    uECC.c.o(.text.uECC_sign_with_k) refers to uECC.c.o(.text.bits2int) for bits2int
    uECC.c.o(.text.uECC_sign_with_k) refers to uECC.c.o(.text.uECC_vli_modAdd) for uECC_vli_modAdd
    uECC.c.o(.text.uECC_sign_with_k) refers to uECC.c.o(.text.uECC_vli_numBits) for uECC_vli_numBits
    uECC.c.o(.text.uECC_sign_with_k) refers to uECC.c.o(.bss.g_rng_function) for [Anonymous Symbol]
    uECC.c.o(.text.uECC_make_key) refers to uECC.c.o(.text.uECC_generate_random_int) for uECC_generate_random_int
    uECC.c.o(.text.uECC_make_key) refers to uECC.c.o(.text.EccPoint_compute_public_key) for EccPoint_compute_public_key
    uECC.c.o(.text.uECC_shared_secret) refers to uECC.c.o(.text.bcopy) for bcopy
    uECC.c.o(.text.uECC_shared_secret) refers to uECC.c.o(.text.regularize_k) for regularize_k
    uECC.c.o(.text.uECC_shared_secret) refers to uECC.c.o(.text.uECC_generate_random_int) for uECC_generate_random_int
    uECC.c.o(.text.uECC_shared_secret) refers to uECC.c.o(.text.EccPoint_mult) for EccPoint_mult
    uECC.c.o(.text.uECC_shared_secret) refers to uECC.c.o(.text.uECC_vli_isZero) for uECC_vli_isZero
    uECC.c.o(.text.uECC_shared_secret) refers to uECC.c.o(.bss.g_rng_function) for [Anonymous Symbol]
    uECC.c.o(.text.uECC_valid_point) refers to uECC.c.o(.text.uECC_vli_isZero) for uECC_vli_isZero
    uECC.c.o(.text.uECC_valid_point) refers to uECC.c.o(.text.uECC_vli_cmp_unsafe) for uECC_vli_cmp_unsafe
    uECC.c.o(.text.uECC_valid_point) refers to uECC.c.o(.text.uECC_vli_modSquare_fast) for uECC_vli_modSquare_fast
    uECC.c.o(.text.uECC_valid_point) refers to uECC.c.o(.text.uECC_vli_equal) for uECC_vli_equal
    uECC.c.o(.text.uECC_valid_public_key) refers to uECC.c.o(.text.uECC_valid_point) for uECC_valid_point
    uECC.c.o(.text.uECC_compute_public_key) refers to uECC.c.o(.text.uECC_vli_isZero) for uECC_vli_isZero
    uECC.c.o(.text.uECC_compute_public_key) refers to uECC.c.o(.text.uECC_vli_cmp) for uECC_vli_cmp
    uECC.c.o(.text.uECC_compute_public_key) refers to uECC.c.o(.text.EccPoint_compute_public_key) for EccPoint_compute_public_key
    uECC.c.o(.text.uECC_sign) refers to uECC.c.o(.text.uECC_generate_random_int) for uECC_generate_random_int
    uECC.c.o(.text.uECC_sign) refers to uECC.c.o(.text.uECC_sign_with_k) for uECC_sign_with_k
    uECC.c.o(.text.uECC_sign_deterministic) refers to uECC.c.o(.text.HMAC_init) for HMAC_init
    uECC.c.o(.text.uECC_sign_deterministic) refers to uECC.c.o(.text.HMAC_update) for HMAC_update
    uECC.c.o(.text.uECC_sign_deterministic) refers to uECC.c.o(.text.HMAC_finish) for HMAC_finish
    uECC.c.o(.text.uECC_sign_deterministic) refers to uECC.c.o(.text.update_V) for update_V
    uECC.c.o(.text.uECC_sign_deterministic) refers to uECC.c.o(.text.uECC_sign_with_k) for uECC_sign_with_k
    uECC.c.o(.text.uECC_verify) refers to uECC.c.o(.text.bcopy) for bcopy
    uECC.c.o(.text.uECC_verify) refers to uECC.c.o(.text.uECC_vli_isZero) for uECC_vli_isZero
    uECC.c.o(.text.uECC_verify) refers to uECC.c.o(.text.uECC_vli_cmp_unsafe) for uECC_vli_cmp_unsafe
    uECC.c.o(.text.uECC_verify) refers to uECC.c.o(.text.uECC_vli_modInv) for uECC_vli_modInv
    uECC.c.o(.text.uECC_verify) refers to uECC.c.o(.text.bits2int) for bits2int
    uECC.c.o(.text.uECC_verify) refers to uECC.c.o(.text.uECC_vli_modMult) for uECC_vli_modMult
    uECC.c.o(.text.uECC_verify) refers to uECC.c.o(.text.uECC_vli_set) for uECC_vli_set
    uECC.c.o(.text.uECC_verify) refers to uECC.c.o(.text.uECC_vli_modSub) for uECC_vli_modSub
    uECC.c.o(.text.uECC_verify) refers to uECC.c.o(.text.XYcZ_add) for XYcZ_add
    uECC.c.o(.text.uECC_verify) refers to uECC.c.o(.text.apply_z) for apply_z
    uECC.c.o(.text.uECC_verify) refers to uECC.c.o(.text.uECC_vli_numBits) for uECC_vli_numBits
    uECC.c.o(.text.uECC_verify) refers to uECC.c.o(.text.uECC_vli_testBit) for uECC_vli_testBit
    uECC.c.o(.text.uECC_verify) refers to uECC.c.o(.text.uECC_vli_clear) for uECC_vli_clear
    uECC.c.o(.text.uECC_verify) refers to uECC.c.o(.text.uECC_vli_modMult_fast) for uECC_vli_modMult_fast
    uECC.c.o(.text.uECC_verify) refers to uECC.c.o(.text.uECC_vli_sub) for uECC_vli_sub
    uECC.c.o(.text.uECC_verify) refers to uECC.c.o(.text.uECC_vli_equal) for uECC_vli_equal
    uECC.c.o(.text.uECC_point_mult) refers to uECC.c.o(.text.regularize_k) for regularize_k
    uECC.c.o(.text.uECC_point_mult) refers to uECC.c.o(.text.EccPoint_mult) for EccPoint_mult
    uECC.c.o(.rodata.curve_secp192r1) refers to uECC.c.o(.text.double_jacobian_default) for double_jacobian_default
    uECC.c.o(.rodata.curve_secp192r1) refers to uECC.c.o(.text.x_side_default) for x_side_default
    uECC.c.o(.rodata.curve_secp192r1) refers to uECC.c.o(.text.vli_mmod_fast_secp192r1) for vli_mmod_fast_secp192r1
    uECC.c.o(.rodata.curve_secp256k1) refers to uECC.c.o(.text.double_jacobian_secp256k1) for double_jacobian_secp256k1
    uECC.c.o(.rodata.curve_secp256k1) refers to uECC.c.o(.text.x_side_secp256k1) for x_side_secp256k1
    uECC.c.o(.rodata.curve_secp256k1) refers to uECC.c.o(.text.vli_mmod_fast_secp256k1) for vli_mmod_fast_secp256k1
    uECC.c.o(.rodata.curve_secp256r1) refers to uECC.c.o(.text.double_jacobian_default) for double_jacobian_default
    uECC.c.o(.rodata.curve_secp256r1) refers to uECC.c.o(.text.x_side_default) for x_side_default
    uECC.c.o(.rodata.curve_secp256r1) refers to uECC.c.o(.text.vli_mmod_fast_secp256r1) for vli_mmod_fast_secp256r1
    uECC.c.o(.rodata.curve_secp160r1) refers to uECC.c.o(.text.double_jacobian_default) for double_jacobian_default
    uECC.c.o(.rodata.curve_secp160r1) refers to uECC.c.o(.text.x_side_default) for x_side_default
    uECC.c.o(.rodata.curve_secp160r1) refers to uECC.c.o(.text.vli_mmod_fast_secp160r1) for vli_mmod_fast_secp160r1
    uECC.c.o(.rodata.curve_secp224r1) refers to uECC.c.o(.text.double_jacobian_default) for double_jacobian_default
    uECC.c.o(.rodata.curve_secp224r1) refers to uECC.c.o(.text.x_side_default) for x_side_default
    uECC.c.o(.rodata.curve_secp224r1) refers to uECC.c.o(.text.vli_mmod_fast_secp224r1) for vli_mmod_fast_secp224r1
    entry.o(.ARM.Collect$$$$00000000) refers (Special) to entry10a.o(.ARM.Collect$$$$0000000D) for __rt_final_cpp
    entry.o(.ARM.Collect$$$$00000000) refers (Special) to entry11a.o(.ARM.Collect$$$$0000000F) for __rt_final_exit
    entry.o(.ARM.Collect$$$$00000000) refers (Special) to entry7b.o(.ARM.Collect$$$$00000008) for _main_clock
    entry.o(.ARM.Collect$$$$00000000) refers (Special) to entry8b.o(.ARM.Collect$$$$0000000A) for _main_cpp_init
    entry.o(.ARM.Collect$$$$00000000) refers (Special) to entry9a.o(.ARM.Collect$$$$0000000B) for _main_init
    entry.o(.ARM.Collect$$$$00000000) refers (Special) to entry5.o(.ARM.Collect$$$$00000004) for _main_scatterload
    entry.o(.ARM.Collect$$$$00000000) refers (Special) to entry2.o(.ARM.Collect$$$$00000001) for _main_stk
    entry2.o(.ARM.Collect$$$$00000001) refers to entry2.o(.ARM.Collect$$$$00002712) for __lit__00000000
    entry2.o(.ARM.Collect$$$$00002712) refers to arm_startup_nrf52820.o(STACK) for __initial_sp
    entry2.o(__vectab_stack_and_reset_area) refers to arm_startup_nrf52820.o(STACK) for __initial_sp
    entry2.o(__vectab_stack_and_reset_area) refers to entry.o(.ARM.Collect$$$$00000000) for __main
    entry5.o(.ARM.Collect$$$$00000004) refers to init.o(.text) for __scatterload
    entry9a.o(.ARM.Collect$$$$0000000B) refers to main.o(i.main) for main
    entry9b.o(.ARM.Collect$$$$0000000C) refers to main.o(i.main) for main
    init.o(.text) refers to entry5.o(.ARM.Collect$$$$00000004) for __main_after_scatterload


==============================================================================

Removing Unused input sections from the image.

    Removing main.o(.rev16_text), (4 bytes).
    Removing main.o(.revsh_text), (4 bytes).
    Removing main.o(.rrx_text), (6 bytes).
    Removing main.o(i.app_error_handler), (4 bytes).
    Removing boards.o(.rev16_text), (4 bytes).
    Removing boards.o(.revsh_text), (4 bytes).
    Removing boards.o(.rrx_text), (6 bytes).
    Removing boards.o(i.bsp_board_button_idx_to_pin), (12 bytes).
    Removing boards.o(i.bsp_board_button_state_get), (32 bytes).
    Removing boards.o(i.bsp_board_led_idx_to_pin), (12 bytes).
    Removing boards.o(i.bsp_board_led_invert), (36 bytes).
    Removing boards.o(i.bsp_board_led_state_get), (32 bytes).
    Removing boards.o(i.bsp_board_leds_on), (18 bytes).
    Removing boards.o(i.bsp_board_pin_to_button_idx), (36 bytes).
    Removing boards.o(i.bsp_board_pin_to_led_idx), (36 bytes).
    Removing ble_srv_common.o(.rev16_text), (4 bytes).
    Removing ble_srv_common.o(.revsh_text), (4 bytes).
    Removing ble_srv_common.o(.rrx_text), (6 bytes).
    Removing ble_srv_common.o(i.ble_srv_ascii_to_utf8), (18 bytes).
    Removing ble_srv_common.o(i.ble_srv_is_indication_enabled), (8 bytes).
    Removing ble_srv_common.o(i.ble_srv_report_ref_encode), (12 bytes).
    Removing ble_srv_common.o(i.characteristic_add), (400 bytes).
    Removing ble_srv_common.o(i.descriptor_add), (170 bytes).
    Removing ble_srv_common.o(i.set_security_req), (48 bytes).
    Removing nrf_bootloader.o(.rev16_text), (4 bytes).
    Removing nrf_bootloader.o(.revsh_text), (4 bytes).
    Removing nrf_bootloader.o(.rrx_text), (6 bytes).
    Removing nrf_bootloader.o(i.nrf_dfu_init), (4 bytes).
    Removing nrf_bootloader.o(.constdata), (6 bytes).
    Removing nrf_bootloader_app_start.o(.rev16_text), (4 bytes).
    Removing nrf_bootloader_app_start.o(.revsh_text), (4 bytes).
    Removing nrf_bootloader_app_start.o(.rrx_text), (6 bytes).
    Removing nrf_bootloader_app_start_final.o(.rev16_text), (4 bytes).
    Removing nrf_bootloader_app_start_final.o(.revsh_text), (4 bytes).
    Removing nrf_bootloader_app_start_final.o(.rrx_text), (6 bytes).
    Removing nrf_bootloader_app_start_final.o(i.jump_to_addr), (6 bytes).
    Removing nrf_bootloader_dfu_timers.o(.rev16_text), (4 bytes).
    Removing nrf_bootloader_dfu_timers.o(.revsh_text), (4 bytes).
    Removing nrf_bootloader_dfu_timers.o(.rrx_text), (6 bytes).
    Removing nrf_bootloader_dfu_timers.o(i.nrf_bootloader_dfu_timer_counter_get), (24 bytes).
    Removing nrf_bootloader_fw_activation.o(.rev16_text), (4 bytes).
    Removing nrf_bootloader_fw_activation.o(.revsh_text), (4 bytes).
    Removing nrf_bootloader_fw_activation.o(.rrx_text), (6 bytes).
    Removing nrf_bootloader_info.o(.rev16_text), (4 bytes).
    Removing nrf_bootloader_info.o(.revsh_text), (4 bytes).
    Removing nrf_bootloader_info.o(.rrx_text), (6 bytes).
    Removing nrf_bootloader_info.o(i.__NVIC_SystemReset), (36 bytes).
    Removing nrf_bootloader_info.o(i.nrf_bootloader_debug_port_disable), (48 bytes).
    Removing nrf_bootloader_wdt.o(.rev16_text), (4 bytes).
    Removing nrf_bootloader_wdt.o(.revsh_text), (4 bytes).
    Removing nrf_bootloader_wdt.o(.rrx_text), (6 bytes).
    Removing nrf_crypto_ecc.o(.rev16_text), (4 bytes).
    Removing nrf_crypto_ecc.o(.revsh_text), (4 bytes).
    Removing nrf_crypto_ecc.o(.rrx_text), (6 bytes).
    Removing nrf_crypto_ecc.o(i.nrf_crypto_ecc_byte_order_invert), (82 bytes).
    Removing nrf_crypto_ecc.o(i.nrf_crypto_ecc_curve_info_get), (48 bytes).
    Removing nrf_crypto_ecc.o(i.nrf_crypto_ecc_key_pair_generate), (68 bytes).
    Removing nrf_crypto_ecc.o(i.nrf_crypto_ecc_private_key_free), (24 bytes).
    Removing nrf_crypto_ecc.o(i.nrf_crypto_ecc_private_key_from_raw), (52 bytes).
    Removing nrf_crypto_ecc.o(i.nrf_crypto_ecc_private_key_to_raw), (52 bytes).
    Removing nrf_crypto_ecc.o(i.nrf_crypto_ecc_public_key_calculate), (60 bytes).
    Removing nrf_crypto_ecc.o(i.nrf_crypto_ecc_public_key_free), (24 bytes).
    Removing nrf_crypto_ecc.o(i.nrf_crypto_ecc_public_key_to_raw), (52 bytes).
    Removing nrf_crypto_ecc.o(i.nrf_crypto_internal_ecc_raw_output_prepare), (28 bytes).
    Removing nrf_crypto_ecdsa.o(.rev16_text), (4 bytes).
    Removing nrf_crypto_ecdsa.o(.revsh_text), (4 bytes).
    Removing nrf_crypto_ecdsa.o(.rrx_text), (6 bytes).
    Removing nrf_crypto_ecdsa.o(i.nrf_crypto_ecdsa_sign), (76 bytes).
    Removing nrf_crypto_hash.o(.rev16_text), (4 bytes).
    Removing nrf_crypto_hash.o(.revsh_text), (4 bytes).
    Removing nrf_crypto_hash.o(.rrx_text), (6 bytes).
    Removing nrf_crypto_init.o(.rev16_text), (4 bytes).
    Removing nrf_crypto_init.o(.revsh_text), (4 bytes).
    Removing nrf_crypto_init.o(.rrx_text), (6 bytes).
    Removing nrf_crypto_init.o(i.nrf_crypto_is_initialized), (20 bytes).
    Removing nrf_crypto_init.o(i.nrf_crypto_is_initializing), (28 bytes).
    Removing nrf_crypto_init.o(i.nrf_crypto_uninit), (56 bytes).
    Removing nrf_crypto_shared.o(.rev16_text), (4 bytes).
    Removing nrf_crypto_shared.o(.revsh_text), (4 bytes).
    Removing nrf_crypto_shared.o(.rrx_text), (6 bytes).
    Removing oberon_backend_chacha_poly_aead.o(.rev16_text), (4 bytes).
    Removing oberon_backend_chacha_poly_aead.o(.revsh_text), (4 bytes).
    Removing oberon_backend_chacha_poly_aead.o(.rrx_text), (6 bytes).
    Removing oberon_backend_hash.o(.rev16_text), (4 bytes).
    Removing oberon_backend_hash.o(.revsh_text), (4 bytes).
    Removing oberon_backend_hash.o(.rrx_text), (6 bytes).
    Removing oberon_backend_hmac.o(.rev16_text), (4 bytes).
    Removing oberon_backend_hmac.o(.revsh_text), (4 bytes).
    Removing oberon_backend_hmac.o(.rrx_text), (6 bytes).
    Removing nrf_sw_backend_hash.o(.rev16_text), (4 bytes).
    Removing nrf_sw_backend_hash.o(.revsh_text), (4 bytes).
    Removing nrf_sw_backend_hash.o(.rrx_text), (6 bytes).
    Removing micro_ecc_backend_ecc.o(.rev16_text), (4 bytes).
    Removing micro_ecc_backend_ecc.o(.revsh_text), (4 bytes).
    Removing micro_ecc_backend_ecc.o(.rrx_text), (6 bytes).
    Removing micro_ecc_backend_ecc.o(i.nrf_crypto_backend_micro_ecc_key_pair_generate), (52 bytes).
    Removing micro_ecc_backend_ecc.o(i.nrf_crypto_backend_micro_ecc_private_key_from_raw), (16 bytes).
    Removing micro_ecc_backend_ecc.o(i.nrf_crypto_backend_micro_ecc_private_key_to_raw), (22 bytes).
    Removing micro_ecc_backend_ecc.o(i.nrf_crypto_backend_micro_ecc_public_key_calculate), (38 bytes).
    Removing micro_ecc_backend_ecc.o(i.nrf_crypto_backend_micro_ecc_public_key_to_raw), (22 bytes).
    Removing micro_ecc_backend_ecc.o(i.nrf_crypto_backend_micro_ecc_rng_callback), (4 bytes).
    Removing micro_ecc_backend_ecdh.o(.rev16_text), (4 bytes).
    Removing micro_ecc_backend_ecdh.o(.revsh_text), (4 bytes).
    Removing micro_ecc_backend_ecdh.o(.rrx_text), (6 bytes).
    Removing micro_ecc_backend_ecdh.o(i.nrf_crypto_backend_micro_ecc_ecdh_compute), (74 bytes).
    Removing micro_ecc_backend_ecdsa.o(.rev16_text), (4 bytes).
    Removing micro_ecc_backend_ecdsa.o(.revsh_text), (4 bytes).
    Removing micro_ecc_backend_ecdsa.o(.rrx_text), (6 bytes).
    Removing micro_ecc_backend_ecdsa.o(i.nrf_crypto_backend_micro_ecc_sign), (96 bytes).
    Removing nrf_dfu.o(.rev16_text), (4 bytes).
    Removing nrf_dfu.o(.revsh_text), (4 bytes).
    Removing nrf_dfu.o(.rrx_text), (6 bytes).
    Removing nrf_dfu_ble.o(.rev16_text), (4 bytes).
    Removing nrf_dfu_ble.o(.revsh_text), (4 bytes).
    Removing nrf_dfu_ble.o(.rrx_text), (6 bytes).
    Removing nrf_dfu_ble.o(i.ble_dfu_transport_disconnect), (32 bytes).
    Removing nrf_dfu_flash.o(.rev16_text), (4 bytes).
    Removing nrf_dfu_flash.o(.revsh_text), (4 bytes).
    Removing nrf_dfu_flash.o(.rrx_text), (6 bytes).
    Removing nrf_dfu_flash.o(.data), (4 bytes).
    Removing nrf_dfu_handling_error.o(.rev16_text), (4 bytes).
    Removing nrf_dfu_handling_error.o(.revsh_text), (4 bytes).
    Removing nrf_dfu_handling_error.o(.rrx_text), (6 bytes).
    Removing nrf_dfu_mbr.o(.rev16_text), (4 bytes).
    Removing nrf_dfu_mbr.o(.revsh_text), (4 bytes).
    Removing nrf_dfu_mbr.o(.rrx_text), (6 bytes).
    Removing nrf_dfu_req_handler.o(.rev16_text), (4 bytes).
    Removing nrf_dfu_req_handler.o(.revsh_text), (4 bytes).
    Removing nrf_dfu_req_handler.o(.rrx_text), (6 bytes).
    Removing nrf_dfu_settings.o(.rev16_text), (4 bytes).
    Removing nrf_dfu_settings.o(.revsh_text), (4 bytes).
    Removing nrf_dfu_settings.o(.rrx_text), (6 bytes).
    Removing nrf_dfu_settings.o(i.nrf_dfu_settings_additional_erase), (4 bytes).
    Removing nrf_dfu_settings_svci.o(.rev16_text), (4 bytes).
    Removing nrf_dfu_settings_svci.o(.revsh_text), (4 bytes).
    Removing nrf_dfu_settings_svci.o(.rrx_text), (6 bytes).
    Removing nrf_dfu_transport.o(.rev16_text), (4 bytes).
    Removing nrf_dfu_transport.o(.revsh_text), (4 bytes).
    Removing nrf_dfu_transport.o(.rrx_text), (6 bytes).
    Removing nrf_dfu_utils.o(.rev16_text), (4 bytes).
    Removing nrf_dfu_utils.o(.revsh_text), (4 bytes).
    Removing nrf_dfu_utils.o(.rrx_text), (6 bytes).
    Removing nrf_dfu_utils.o(i.nrf_dfu_app_start_address), (4 bytes).
    Removing nrf_dfu_validation.o(.rev16_text), (4 bytes).
    Removing nrf_dfu_validation.o(.revsh_text), (4 bytes).
    Removing nrf_dfu_validation.o(.rrx_text), (6 bytes).
    Removing nrf_dfu_validation.o(i.nrf_dfu_validation_init_cmd_status_get), (24 bytes).
    Removing nrf_dfu_validation.o(i.nrf_dfu_validation_post_data_execute), (6 bytes).
    Removing nrf_dfu_validation.o(i.nrf_dfu_validation_valid_external_app), (20 bytes).
    Removing nrf_dfu_ver_validation.o(.rev16_text), (4 bytes).
    Removing nrf_dfu_ver_validation.o(.revsh_text), (4 bytes).
    Removing nrf_dfu_ver_validation.o(.rrx_text), (6 bytes).
    Removing nrf_nvmc.o(.rev16_text), (4 bytes).
    Removing nrf_nvmc.o(.revsh_text), (4 bytes).
    Removing nrf_nvmc.o(.rrx_text), (6 bytes).
    Removing nrf_nvmc.o(i.nrf_nvmc_write_byte), (68 bytes).
    Removing nrf_nvmc.o(i.nrf_nvmc_write_bytes), (28 bytes).
    Removing nrfx_atomic.o(.rev16_text), (4 bytes).
    Removing nrfx_atomic.o(.revsh_text), (4 bytes).
    Removing nrfx_atomic.o(.rrx_text), (6 bytes).
    Removing nrfx_atomic.o(.emb_text), (226 bytes).
    Removing nrfx_atomic.o(i.nrfx_atomic_flag_clear), (6 bytes).
    Removing nrfx_atomic.o(i.nrfx_atomic_flag_clear_fetch), (6 bytes).
    Removing nrfx_atomic.o(i.nrfx_atomic_flag_set), (6 bytes).
    Removing nrfx_atomic.o(i.nrfx_atomic_flag_set_fetch), (6 bytes).
    Removing nrfx_atomic.o(i.nrfx_atomic_u32_add), (12 bytes).
    Removing nrfx_atomic.o(i.nrfx_atomic_u32_and), (12 bytes).
    Removing nrfx_atomic.o(i.nrfx_atomic_u32_cmp_exch), (4 bytes).
    Removing nrfx_atomic.o(i.nrfx_atomic_u32_fetch_add), (10 bytes).
    Removing nrfx_atomic.o(i.nrfx_atomic_u32_fetch_and), (10 bytes).
    Removing nrfx_atomic.o(i.nrfx_atomic_u32_fetch_or), (10 bytes).
    Removing nrfx_atomic.o(i.nrfx_atomic_u32_fetch_store), (10 bytes).
    Removing nrfx_atomic.o(i.nrfx_atomic_u32_fetch_sub), (10 bytes).
    Removing nrfx_atomic.o(i.nrfx_atomic_u32_fetch_sub_hs), (10 bytes).
    Removing nrfx_atomic.o(i.nrfx_atomic_u32_fetch_xor), (10 bytes).
    Removing nrfx_atomic.o(i.nrfx_atomic_u32_or), (12 bytes).
    Removing nrfx_atomic.o(i.nrfx_atomic_u32_store), (12 bytes).
    Removing nrfx_atomic.o(i.nrfx_atomic_u32_sub), (12 bytes).
    Removing nrfx_atomic.o(i.nrfx_atomic_u32_sub_hs), (12 bytes).
    Removing nrfx_atomic.o(i.nrfx_atomic_u32_xor), (12 bytes).
    Removing app_error_weak.o(.rev16_text), (4 bytes).
    Removing app_error_weak.o(.revsh_text), (4 bytes).
    Removing app_error_weak.o(.rrx_text), (6 bytes).
    Removing app_error_weak.o(i.app_error_fault_handler), (48 bytes).
    Removing app_scheduler.o(.rev16_text), (4 bytes).
    Removing app_scheduler.o(.revsh_text), (4 bytes).
    Removing app_scheduler.o(.rrx_text), (6 bytes).
    Removing app_scheduler.o(i.app_sched_queue_space_get), (36 bytes).
    Removing app_util_platform.o(.rev16_text), (4 bytes).
    Removing app_util_platform.o(.revsh_text), (4 bytes).
    Removing app_util_platform.o(.rrx_text), (6 bytes).
    Removing app_util_platform.o(i.app_util_disable_irq), (16 bytes).
    Removing app_util_platform.o(i.app_util_enable_irq), (20 bytes).
    Removing app_util_platform.o(i.current_int_priority_get), (48 bytes).
    Removing app_util_platform.o(i.privilege_level_get), (26 bytes).
    Removing app_util_platform.o(.data), (4 bytes).
    Removing crc32.o(.rev16_text), (4 bytes).
    Removing crc32.o(.revsh_text), (4 bytes).
    Removing crc32.o(.rrx_text), (6 bytes).
    Removing mem_manager.o(.rev16_text), (4 bytes).
    Removing mem_manager.o(.revsh_text), (4 bytes).
    Removing mem_manager.o(.rrx_text), (6 bytes).
    Removing mem_manager.o(i.block_init), (32 bytes).
    Removing mem_manager.o(i.get_block_cat), (60 bytes).
    Removing mem_manager.o(i.get_block_size), (24 bytes).
    Removing mem_manager.o(i.nrf_calloc), (36 bytes).
    Removing mem_manager.o(i.nrf_free), (40 bytes).
    Removing mem_manager.o(i.nrf_malloc), (24 bytes).
    Removing mem_manager.o(i.nrf_mem_init), (24 bytes).
    Removing mem_manager.o(i.nrf_mem_reserve), (128 bytes).
    Removing mem_manager.o(i.nrf_realloc), (2 bytes).
    Removing mem_manager.o(.bss), (32 bytes).
    Removing mem_manager.o(.constdata), (112 bytes).
    Removing mem_manager.o(.constdata), (13 bytes).
    Removing mem_manager.o(.constdata), (16 bytes).
    Removing mem_manager.o(.constdata), (11 bytes).
    Removing mem_manager.o(.constdata), (9 bytes).
    Removing mem_manager.o(.data), (8 bytes).
    Removing nrf_assert.o(.rev16_text), (4 bytes).
    Removing nrf_assert.o(.revsh_text), (4 bytes).
    Removing nrf_assert.o(.rrx_text), (6 bytes).
    Removing nrf_assert.o(i.assert_nrf_callback), (20 bytes).
    Removing nrf_atfifo.o(.rev16_text), (4 bytes).
    Removing nrf_atfifo.o(.revsh_text), (4 bytes).
    Removing nrf_atfifo.o(.rrx_text), (6 bytes).
    Removing nrf_atfifo.o(i.nrf_atfifo_alloc_put), (46 bytes).
    Removing nrf_atfifo.o(i.nrf_atfifo_get_free), (48 bytes).
    Removing nrf_atomic.o(.rev16_text), (4 bytes).
    Removing nrf_atomic.o(.revsh_text), (4 bytes).
    Removing nrf_atomic.o(.rrx_text), (6 bytes).
    Removing nrf_atomic.o(i.nrf_atomic_flag_clear_fetch), (6 bytes).
    Removing nrf_atomic.o(i.nrf_atomic_flag_set), (6 bytes).
    Removing nrf_atomic.o(i.nrf_atomic_u32_add), (12 bytes).
    Removing nrf_atomic.o(i.nrf_atomic_u32_cmp_exch), (4 bytes).
    Removing nrf_atomic.o(i.nrf_atomic_u32_fetch_add), (10 bytes).
    Removing nrf_atomic.o(i.nrf_atomic_u32_fetch_and), (10 bytes).
    Removing nrf_atomic.o(i.nrf_atomic_u32_fetch_store), (10 bytes).
    Removing nrf_atomic.o(i.nrf_atomic_u32_fetch_sub), (10 bytes).
    Removing nrf_atomic.o(i.nrf_atomic_u32_fetch_sub_hs), (10 bytes).
    Removing nrf_atomic.o(i.nrf_atomic_u32_fetch_xor), (10 bytes).
    Removing nrf_atomic.o(i.nrf_atomic_u32_or), (12 bytes).
    Removing nrf_atomic.o(i.nrf_atomic_u32_store), (12 bytes).
    Removing nrf_atomic.o(i.nrf_atomic_u32_sub), (12 bytes).
    Removing nrf_atomic.o(i.nrf_atomic_u32_sub_hs), (12 bytes).
    Removing nrf_atomic.o(i.nrf_atomic_u32_xor), (12 bytes).
    Removing nrf_balloc.o(.rev16_text), (4 bytes).
    Removing nrf_balloc.o(.revsh_text), (4 bytes).
    Removing nrf_balloc.o(.rrx_text), (6 bytes).
    Removing nrf_fstorage.o(.rev16_text), (4 bytes).
    Removing nrf_fstorage.o(.revsh_text), (4 bytes).
    Removing nrf_fstorage.o(.rrx_text), (6 bytes).
    Removing nrf_fstorage.o(i.nrf_fstorage_read), (48 bytes).
    Removing nrf_fstorage.o(i.nrf_fstorage_rmap), (14 bytes).
    Removing nrf_fstorage.o(i.nrf_fstorage_uninit), (20 bytes).
    Removing nrf_fstorage.o(i.nrf_fstorage_wmap), (14 bytes).
    Removing nrf_fstorage.o(.constdata), (18 bytes).
    Removing nrf_fstorage.o(.constdata), (20 bytes).
    Removing nrf_fstorage.o(.constdata), (18 bytes).
    Removing nrf_fstorage.o(.constdata), (19 bytes).
    Removing nrf_fstorage.o(.constdata), (19 bytes).
    Removing nrf_fstorage_nvmc.o(.rev16_text), (4 bytes).
    Removing nrf_fstorage_nvmc.o(.revsh_text), (4 bytes).
    Removing nrf_fstorage_nvmc.o(.rrx_text), (6 bytes).
    Removing nrf_fstorage_sd.o(.rev16_text), (4 bytes).
    Removing nrf_fstorage_sd.o(.revsh_text), (4 bytes).
    Removing nrf_fstorage_sd.o(.rrx_text), (6 bytes).
    Removing nrf_queue.o(.rev16_text), (4 bytes).
    Removing nrf_queue.o(.revsh_text), (4 bytes).
    Removing nrf_queue.o(.rrx_text), (6 bytes).
    Removing nrf_ringbuf.o(.rev16_text), (4 bytes).
    Removing nrf_ringbuf.o(.revsh_text), (4 bytes).
    Removing nrf_ringbuf.o(.rrx_text), (6 bytes).
    Removing nrf_ringbuf.o(i.nrf_ringbuf_alloc), (112 bytes).
    Removing nrf_ringbuf.o(i.nrf_ringbuf_cpy_get), (124 bytes).
    Removing nrf_ringbuf.o(i.nrf_ringbuf_cpy_put), (114 bytes).
    Removing nrf_ringbuf.o(i.nrf_ringbuf_free), (38 bytes).
    Removing nrf_ringbuf.o(i.nrf_ringbuf_get), (112 bytes).
    Removing nrf_ringbuf.o(i.nrf_ringbuf_init), (28 bytes).
    Removing nrf_ringbuf.o(i.nrf_ringbuf_put), (48 bytes).
    Removing nrf_section_iter.o(.rev16_text), (4 bytes).
    Removing nrf_section_iter.o(.revsh_text), (4 bytes).
    Removing nrf_section_iter.o(.rrx_text), (6 bytes).
    Removing nrf_strerror.o(.rev16_text), (4 bytes).
    Removing nrf_strerror.o(.revsh_text), (4 bytes).
    Removing nrf_strerror.o(.rrx_text), (6 bytes).
    Removing nrf_strerror.o(i.nrf_strerror_find), (56 bytes).
    Removing nrf_strerror.o(i.nrf_strerror_get), (20 bytes).
    Removing nrf_strerror.o(.constdata), (316 bytes).
    Removing nrf_strerror.o(.conststring), (1001 bytes).
    Removing sha256.o(.rev16_text), (4 bytes).
    Removing sha256.o(.revsh_text), (4 bytes).
    Removing sha256.o(.rrx_text), (6 bytes).
    Removing nrf_dfu_svci.o(.rev16_text), (4 bytes).
    Removing nrf_dfu_svci.o(.revsh_text), (4 bytes).
    Removing nrf_dfu_svci.o(.rrx_text), (6 bytes).
    Removing nrf_dfu_svci.o(i.nrf_dfu_svci_vector_table_set), (28 bytes).
    Removing nrf_dfu_svci.o(i.nrf_dfu_svci_vector_table_unset), (12 bytes).
    Removing nrf_dfu_svci_handler.o(.rev16_text), (4 bytes).
    Removing nrf_dfu_svci_handler.o(.revsh_text), (4 bytes).
    Removing nrf_dfu_svci_handler.o(.rrx_text), (6 bytes).
    Removing nrf_svc_handler.o(.rev16_text), (4 bytes).
    Removing nrf_svc_handler.o(.revsh_text), (4 bytes).
    Removing nrf_svc_handler.o(.rrx_text), (6 bytes).
    Removing nrf_sdh.o(.rev16_text), (4 bytes).
    Removing nrf_sdh.o(.revsh_text), (4 bytes).
    Removing nrf_sdh.o(.rrx_text), (6 bytes).
    Removing nrf_sdh.o(i.nrf_sdh_is_suspended), (20 bytes).
    Removing nrf_sdh.o(i.nrf_sdh_resume), (56 bytes).
    Removing nrf_sdh.o(i.nrf_sdh_suspend), (24 bytes).
    Removing nrf_sdh_ble.o(.rev16_text), (4 bytes).
    Removing nrf_sdh_ble.o(.revsh_text), (4 bytes).
    Removing nrf_sdh_ble.o(.rrx_text), (6 bytes).
    Removing nrf_sdh_soc.o(.rev16_text), (4 bytes).
    Removing nrf_sdh_soc.o(.revsh_text), (4 bytes).
    Removing nrf_sdh_soc.o(.rrx_text), (6 bytes).
    Removing pb_decode.o(i.pb_close_string_substream), (6 bytes).
    Removing pb_decode.o(i.pb_decode_delimited), (36 bytes).
    Removing arm_startup_nrf52820.o(HEAP), (0 bytes).
    Removing system_nrf52820.o(.rev16_text), (4 bytes).
    Removing system_nrf52820.o(.revsh_text), (4 bytes).
    Removing system_nrf52820.o(.rrx_text), (6 bytes).
    Removing system_nrf52820.o(i.SystemCoreClockUpdate), (16 bytes).
    Removing uECC.c.o(.text), (0 bytes).
    Removing uECC.c.o(.data), (0 bytes).
    Removing uECC.c.o(.bss), (0 bytes).
    Removing uECC.c.o(.text.HMAC_init), (70 bytes).
    Removing uECC.c.o(.text.HMAC_update), (4 bytes).
    Removing uECC.c.o(.text.HMAC_finish), (98 bytes).
    Removing uECC.c.o(.text.update_V), (36 bytes).
    Removing uECC.c.o(.text.omega_mult_secp256k1), (52 bytes).
    Removing uECC.c.o(.text.uECC_set_rng), (12 bytes).
    Removing uECC.c.o(.text.uECC_get_rng), (12 bytes).
    Removing uECC.c.o(.text.uECC_curve_private_key_size), (14 bytes).
    Removing uECC.c.o(.text.uECC_curve_public_key_size), (8 bytes).
    Removing uECC.c.o(.text.vli_mmod_fast_secp256k1), (132 bytes).
    Removing uECC.c.o(.text.regularize_k), (90 bytes).
    Removing uECC.c.o(.text.vli_mmod_fast_secp192r1), (148 bytes).
    Removing uECC.c.o(.text.vli_mmod_fast_secp224r1), (220 bytes).
    Removing uECC.c.o(.text.uECC_vli_cmp), (54 bytes).
    Removing uECC.c.o(.text.omega_mult_secp160r1), (66 bytes).
    Removing uECC.c.o(.text.vli_mmod_fast_secp160r1), (132 bytes).
    Removing uECC.c.o(.text.uECC_vli_modSquare), (34 bytes).
    Removing uECC.c.o(.text.x_side_secp256k1), (46 bytes).
    Removing uECC.c.o(.text.double_jacobian_secp256k1), (266 bytes).
    Removing uECC.c.o(.text.XYcZ_addC), (280 bytes).
    Removing uECC.c.o(.text.EccPoint_mult), (418 bytes).
    Removing uECC.c.o(.text.EccPoint_compute_public_key), (86 bytes).
    Removing uECC.c.o(.text.uECC_secp160r1), (8 bytes).
    Removing uECC.c.o(.text.uECC_secp192r1), (8 bytes).
    Removing uECC.c.o(.text.uECC_secp224r1), (8 bytes).
    Removing uECC.c.o(.text.uECC_secp256k1), (8 bytes).
    Removing uECC.c.o(.text.uECC_vli_nativeToBytes), (40 bytes).
    Removing uECC.c.o(.text.uECC_vli_bytesToNative), (66 bytes).
    Removing uECC.c.o(.text.uECC_generate_random_int), (120 bytes).
    Removing uECC.c.o(.text.uECC_sign_with_k), (364 bytes).
    Removing uECC.c.o(.text.uECC_make_key), (62 bytes).
    Removing uECC.c.o(.text.uECC_shared_secret), (164 bytes).
    Removing uECC.c.o(.text.uECC_valid_point), (108 bytes).
    Removing uECC.c.o(.text.uECC_valid_public_key), (4 bytes).
    Removing uECC.c.o(.text.uECC_compute_public_key), (68 bytes).
    Removing uECC.c.o(.text.uECC_sign), (82 bytes).
    Removing uECC.c.o(.text.uECC_sign_deterministic), (418 bytes).
    Removing uECC.c.o(.text.uECC_curve_num_words), (6 bytes).
    Removing uECC.c.o(.text.uECC_curve_num_bytes), (6 bytes).
    Removing uECC.c.o(.text.uECC_curve_num_bits), (8 bytes).
    Removing uECC.c.o(.text.uECC_curve_num_n_words), (14 bytes).
    Removing uECC.c.o(.text.uECC_curve_num_n_bytes), (14 bytes).
    Removing uECC.c.o(.text.uECC_curve_num_n_bits), (6 bytes).
    Removing uECC.c.o(.text.uECC_curve_p), (4 bytes).
    Removing uECC.c.o(.text.uECC_curve_n), (4 bytes).
    Removing uECC.c.o(.text.uECC_curve_G), (4 bytes).
    Removing uECC.c.o(.text.uECC_curve_b), (4 bytes).
    Removing uECC.c.o(.text.uECC_vli_mmod_fast), (6 bytes).
    Removing uECC.c.o(.text.uECC_point_mult), (66 bytes).
    Removing uECC.c.o(.rodata.curve_secp192r1), (176 bytes).
    Removing uECC.c.o(.rodata.curve_secp256k1), (176 bytes).
    Removing uECC.c.o(.rodata.curve_secp160r1), (176 bytes).
    Removing uECC.c.o(.rodata.curve_secp224r1), (176 bytes).
    Removing uECC.c.o(.bss.g_rng_function), (4 bytes).

379 unused section(s) (total 11474 bytes) removed from the image.

==============================================================================

Image Symbol Table

    Local Symbols

    Symbol Name                              Value     Ov Type        Size  Object(Section)

    ../clib/microlib/init/entry.s            0x00000000   Number         0  entry9b.o ABSOLUTE
    ../clib/microlib/init/entry.s            0x00000000   Number         0  entry11b.o ABSOLUTE
    ../clib/microlib/init/entry.s            0x00000000   Number         0  entry11a.o ABSOLUTE
    ../clib/microlib/init/entry.s            0x00000000   Number         0  entry7b.o ABSOLUTE
    ../clib/microlib/init/entry.s            0x00000000   Number         0  entry10b.o ABSOLUTE
    ../clib/microlib/init/entry.s            0x00000000   Number         0  entry10a.o ABSOLUTE
    ../clib/microlib/init/entry.s            0x00000000   Number         0  entry9a.o ABSOLUTE
    ../clib/microlib/init/entry.s            0x00000000   Number         0  entry5.o ABSOLUTE
    ../clib/microlib/init/entry.s            0x00000000   Number         0  entry8b.o ABSOLUTE
    ../clib/microlib/init/entry.s            0x00000000   Number         0  entry2.o ABSOLUTE
    ../clib/microlib/init/entry.s            0x00000000   Number         0  entry7a.o ABSOLUTE
    ../clib/microlib/init/entry.s            0x00000000   Number         0  entry.o ABSOLUTE
    ../clib/microlib/init/entry.s            0x00000000   Number         0  entry8a.o ABSOLUTE
    ../clib/microlib/longlong.c              0x00000000   Number         0  llshl.o ABSOLUTE
    ../clib/microlib/string/memcmp.c         0x00000000   Number         0  memcmp.o ABSOLUTE
    ../clib/microlib/string/memcpy.c         0x00000000   Number         0  memcpya.o ABSOLUTE
    ../clib/microlib/string/memcpy.c         0x00000000   Number         0  memcpyb.o ABSOLUTE
    ../clib/microlib/string/memset.c         0x00000000   Number         0  memset.o ABSOLUTE
    ../clib/microlib/string/memset.c         0x00000000   Number         0  memseta.o ABSOLUTE
    ../clib/microlib/string/strlen.c         0x00000000   Number         0  strlen.o ABSOLUTE
    ..\..\..\..\..\components\ble\common\ble_srv_common.c 0x00000000   Number         0  ble_srv_common.o ABSOLUTE
    ..\..\..\..\..\components\boards\boards.c 0x00000000   Number         0  boards.o ABSOLUTE
    ..\..\..\..\..\components\libraries\atomic\nrf_atomic.c 0x00000000   Number         0  nrf_atomic.o ABSOLUTE
    ..\..\..\..\..\components\libraries\atomic_fifo\nrf_atfifo.c 0x00000000   Number         0  nrf_atfifo.o ABSOLUTE
    ..\..\..\..\..\components\libraries\balloc\nrf_balloc.c 0x00000000   Number         0  nrf_balloc.o ABSOLUTE
    ..\..\..\..\..\components\libraries\bootloader\ble_dfu\nrf_dfu_ble.c 0x00000000   Number         0  nrf_dfu_ble.o ABSOLUTE
    ..\..\..\..\..\components\libraries\bootloader\dfu\dfu-cc.pb.c 0x00000000   Number         0  dfu-cc.pb.o ABSOLUTE
    ..\..\..\..\..\components\libraries\bootloader\dfu\nrf_dfu.c 0x00000000   Number         0  nrf_dfu.o ABSOLUTE
    ..\..\..\..\..\components\libraries\bootloader\dfu\nrf_dfu_flash.c 0x00000000   Number         0  nrf_dfu_flash.o ABSOLUTE
    ..\..\..\..\..\components\libraries\bootloader\dfu\nrf_dfu_handling_error.c 0x00000000   Number         0  nrf_dfu_handling_error.o ABSOLUTE
    ..\..\..\..\..\components\libraries\bootloader\dfu\nrf_dfu_mbr.c 0x00000000   Number         0  nrf_dfu_mbr.o ABSOLUTE
    ..\..\..\..\..\components\libraries\bootloader\dfu\nrf_dfu_req_handler.c 0x00000000   Number         0  nrf_dfu_req_handler.o ABSOLUTE
    ..\..\..\..\..\components\libraries\bootloader\dfu\nrf_dfu_settings.c 0x00000000   Number         0  nrf_dfu_settings.o ABSOLUTE
    ..\..\..\..\..\components\libraries\bootloader\dfu\nrf_dfu_settings_svci.c 0x00000000   Number         0  nrf_dfu_settings_svci.o ABSOLUTE
    ..\..\..\..\..\components\libraries\bootloader\dfu\nrf_dfu_svci.c 0x00000000   Number         0  nrf_dfu_svci.o ABSOLUTE
    ..\..\..\..\..\components\libraries\bootloader\dfu\nrf_dfu_svci_handler.c 0x00000000   Number         0  nrf_dfu_svci_handler.o ABSOLUTE
    ..\..\..\..\..\components\libraries\bootloader\dfu\nrf_dfu_transport.c 0x00000000   Number         0  nrf_dfu_transport.o ABSOLUTE
    ..\..\..\..\..\components\libraries\bootloader\dfu\nrf_dfu_utils.c 0x00000000   Number         0  nrf_dfu_utils.o ABSOLUTE
    ..\..\..\..\..\components\libraries\bootloader\dfu\nrf_dfu_validation.c 0x00000000   Number         0  nrf_dfu_validation.o ABSOLUTE
    ..\..\..\..\..\components\libraries\bootloader\dfu\nrf_dfu_ver_validation.c 0x00000000   Number         0  nrf_dfu_ver_validation.o ABSOLUTE
    ..\..\..\..\..\components\libraries\bootloader\nrf_bootloader.c 0x00000000   Number         0  nrf_bootloader.o ABSOLUTE
    ..\..\..\..\..\components\libraries\bootloader\nrf_bootloader_app_start.c 0x00000000   Number         0  nrf_bootloader_app_start.o ABSOLUTE
    ..\..\..\..\..\components\libraries\bootloader\nrf_bootloader_app_start_final.c 0x00000000   Number         0  nrf_bootloader_app_start_final.o ABSOLUTE
    ..\..\..\..\..\components\libraries\bootloader\nrf_bootloader_dfu_timers.c 0x00000000   Number         0  nrf_bootloader_dfu_timers.o ABSOLUTE
    ..\..\..\..\..\components\libraries\bootloader\nrf_bootloader_fw_activation.c 0x00000000   Number         0  nrf_bootloader_fw_activation.o ABSOLUTE
    ..\..\..\..\..\components\libraries\bootloader\nrf_bootloader_info.c 0x00000000   Number         0  nrf_bootloader_info.o ABSOLUTE
    ..\..\..\..\..\components\libraries\bootloader\nrf_bootloader_wdt.c 0x00000000   Number         0  nrf_bootloader_wdt.o ABSOLUTE
    ..\..\..\..\..\components\libraries\crc32\crc32.c 0x00000000   Number         0  crc32.o ABSOLUTE
    ..\..\..\..\..\components\libraries\crypto\backend\micro_ecc\micro_ecc_backend_ecc.c 0x00000000   Number         0  micro_ecc_backend_ecc.o ABSOLUTE
    ..\..\..\..\..\components\libraries\crypto\backend\micro_ecc\micro_ecc_backend_ecdh.c 0x00000000   Number         0  micro_ecc_backend_ecdh.o ABSOLUTE
    ..\..\..\..\..\components\libraries\crypto\backend\micro_ecc\micro_ecc_backend_ecdsa.c 0x00000000   Number         0  micro_ecc_backend_ecdsa.o ABSOLUTE
    ..\..\..\..\..\components\libraries\crypto\backend\nrf_sw\nrf_sw_backend_hash.c 0x00000000   Number         0  nrf_sw_backend_hash.o ABSOLUTE
    ..\..\..\..\..\components\libraries\crypto\backend\oberon\oberon_backend_chacha_poly_aead.c 0x00000000   Number         0  oberon_backend_chacha_poly_aead.o ABSOLUTE
    ..\..\..\..\..\components\libraries\crypto\backend\oberon\oberon_backend_ecc.c 0x00000000   Number         0  oberon_backend_ecc.o ABSOLUTE
    ..\..\..\..\..\components\libraries\crypto\backend\oberon\oberon_backend_ecdh.c 0x00000000   Number         0  oberon_backend_ecdh.o ABSOLUTE
    ..\..\..\..\..\components\libraries\crypto\backend\oberon\oberon_backend_ecdsa.c 0x00000000   Number         0  oberon_backend_ecdsa.o ABSOLUTE
    ..\..\..\..\..\components\libraries\crypto\backend\oberon\oberon_backend_eddsa.c 0x00000000   Number         0  oberon_backend_eddsa.o ABSOLUTE
    ..\..\..\..\..\components\libraries\crypto\backend\oberon\oberon_backend_hash.c 0x00000000   Number         0  oberon_backend_hash.o ABSOLUTE
    ..\..\..\..\..\components\libraries\crypto\backend\oberon\oberon_backend_hmac.c 0x00000000   Number         0  oberon_backend_hmac.o ABSOLUTE
    ..\..\..\..\..\components\libraries\crypto\nrf_crypto_ecc.c 0x00000000   Number         0  nrf_crypto_ecc.o ABSOLUTE
    ..\..\..\..\..\components\libraries\crypto\nrf_crypto_ecdsa.c 0x00000000   Number         0  nrf_crypto_ecdsa.o ABSOLUTE
    ..\..\..\..\..\components\libraries\crypto\nrf_crypto_hash.c 0x00000000   Number         0  nrf_crypto_hash.o ABSOLUTE
    ..\..\..\..\..\components\libraries\crypto\nrf_crypto_init.c 0x00000000   Number         0  nrf_crypto_init.o ABSOLUTE
    ..\..\..\..\..\components\libraries\crypto\nrf_crypto_shared.c 0x00000000   Number         0  nrf_crypto_shared.o ABSOLUTE
    ..\..\..\..\..\components\libraries\experimental_section_vars\nrf_section_iter.c 0x00000000   Number         0  nrf_section_iter.o ABSOLUTE
    ..\..\..\..\..\components\libraries\fstorage\nrf_fstorage.c 0x00000000   Number         0  nrf_fstorage.o ABSOLUTE
    ..\..\..\..\..\components\libraries\fstorage\nrf_fstorage_nvmc.c 0x00000000   Number         0  nrf_fstorage_nvmc.o ABSOLUTE
    ..\..\..\..\..\components\libraries\fstorage\nrf_fstorage_sd.c 0x00000000   Number         0  nrf_fstorage_sd.o ABSOLUTE
    ..\..\..\..\..\components\libraries\mem_manager\mem_manager.c 0x00000000   Number         0  mem_manager.o ABSOLUTE
    ..\..\..\..\..\components\libraries\queue\nrf_queue.c 0x00000000   Number         0  nrf_queue.o ABSOLUTE
    ..\..\..\..\..\components\libraries\ringbuf\nrf_ringbuf.c 0x00000000   Number         0  nrf_ringbuf.o ABSOLUTE
    ..\..\..\..\..\components\libraries\scheduler\app_scheduler.c 0x00000000   Number         0  app_scheduler.o ABSOLUTE
    ..\..\..\..\..\components\libraries\sha256\sha256.c 0x00000000   Number         0  sha256.o ABSOLUTE
    ..\..\..\..\..\components\libraries\strerror\nrf_strerror.c 0x00000000   Number         0  nrf_strerror.o ABSOLUTE
    ..\..\..\..\..\components\libraries\svc\nrf_svc_handler.c 0x00000000   Number         0  nrf_svc_handler.o ABSOLUTE
    ..\..\..\..\..\components\libraries\util\app_error_weak.c 0x00000000   Number         0  app_error_weak.o ABSOLUTE
    ..\..\..\..\..\components\libraries\util\app_util_platform.c 0x00000000   Number         0  app_util_platform.o ABSOLUTE
    ..\..\..\..\..\components\libraries\util\nrf_assert.c 0x00000000   Number         0  nrf_assert.o ABSOLUTE
    ..\..\..\..\..\components\softdevice\common\nrf_sdh.c 0x00000000   Number         0  nrf_sdh.o ABSOLUTE
    ..\..\..\..\..\components\softdevice\common\nrf_sdh_ble.c 0x00000000   Number         0  nrf_sdh_ble.o ABSOLUTE
    ..\..\..\..\..\components\softdevice\common\nrf_sdh_soc.c 0x00000000   Number         0  nrf_sdh_soc.o ABSOLUTE
    ..\..\..\..\..\external\nano-pb\pb_common.c 0x00000000   Number         0  pb_common.o ABSOLUTE
    ..\..\..\..\..\external\nano-pb\pb_decode.c 0x00000000   Number         0  pb_decode.o ABSOLUTE
    ..\..\..\..\..\modules\nrfx\hal\nrf_nvmc.c 0x00000000   Number         0  nrf_nvmc.o ABSOLUTE
    ..\..\..\..\..\modules\nrfx\soc\nrfx_atomic.c 0x00000000   Number         0  nrfx_atomic.o ABSOLUTE
    ..\..\..\dfu_public_key.c                0x00000000   Number         0  dfu_public_key.o ABSOLUTE
    ..\..\main.c                             0x00000000   Number         0  main.o ABSOLUTE
    ..\\..\\..\\..\\..\\components\\ble\\common\\ble_srv_common.c 0x00000000   Number         0  ble_srv_common.o ABSOLUTE
    ..\\..\\..\\..\\..\\components\\boards\\boards.c 0x00000000   Number         0  boards.o ABSOLUTE
    ..\\..\\..\\..\\..\\components\\libraries\\atomic\\nrf_atomic.c 0x00000000   Number         0  nrf_atomic.o ABSOLUTE
    ..\\..\\..\\..\\..\\components\\libraries\\atomic_fifo\\nrf_atfifo.c 0x00000000   Number         0  nrf_atfifo.o ABSOLUTE
    ..\\..\\..\\..\\..\\components\\libraries\\balloc\\nrf_balloc.c 0x00000000   Number         0  nrf_balloc.o ABSOLUTE
    ..\\..\\..\\..\\..\\components\\libraries\\bootloader\\ble_dfu\\nrf_dfu_ble.c 0x00000000   Number         0  nrf_dfu_ble.o ABSOLUTE
    ..\\..\\..\\..\\..\\components\\libraries\\bootloader\\dfu\\nrf_dfu.c 0x00000000   Number         0  nrf_dfu.o ABSOLUTE
    ..\\..\\..\\..\\..\\components\\libraries\\bootloader\\dfu\\nrf_dfu_flash.c 0x00000000   Number         0  nrf_dfu_flash.o ABSOLUTE
    ..\\..\\..\\..\\..\\components\\libraries\\bootloader\\dfu\\nrf_dfu_handling_error.c 0x00000000   Number         0  nrf_dfu_handling_error.o ABSOLUTE
    ..\\..\\..\\..\\..\\components\\libraries\\bootloader\\dfu\\nrf_dfu_mbr.c 0x00000000   Number         0  nrf_dfu_mbr.o ABSOLUTE
    ..\\..\\..\\..\\..\\components\\libraries\\bootloader\\dfu\\nrf_dfu_req_handler.c 0x00000000   Number         0  nrf_dfu_req_handler.o ABSOLUTE
    ..\\..\\..\\..\\..\\components\\libraries\\bootloader\\dfu\\nrf_dfu_settings.c 0x00000000   Number         0  nrf_dfu_settings.o ABSOLUTE
    ..\\..\\..\\..\\..\\components\\libraries\\bootloader\\dfu\\nrf_dfu_settings_svci.c 0x00000000   Number         0  nrf_dfu_settings_svci.o ABSOLUTE
    ..\\..\\..\\..\\..\\components\\libraries\\bootloader\\dfu\\nrf_dfu_svci.c 0x00000000   Number         0  nrf_dfu_svci.o ABSOLUTE
    ..\\..\\..\\..\\..\\components\\libraries\\bootloader\\dfu\\nrf_dfu_svci_handler.c 0x00000000   Number         0  nrf_dfu_svci_handler.o ABSOLUTE
    ..\\..\\..\\..\\..\\components\\libraries\\bootloader\\dfu\\nrf_dfu_transport.c 0x00000000   Number         0  nrf_dfu_transport.o ABSOLUTE
    ..\\..\\..\\..\\..\\components\\libraries\\bootloader\\dfu\\nrf_dfu_utils.c 0x00000000   Number         0  nrf_dfu_utils.o ABSOLUTE
    ..\\..\\..\\..\\..\\components\\libraries\\bootloader\\dfu\\nrf_dfu_validation.c 0x00000000   Number         0  nrf_dfu_validation.o ABSOLUTE
    ..\\..\\..\\..\\..\\components\\libraries\\bootloader\\dfu\\nrf_dfu_ver_validation.c 0x00000000   Number         0  nrf_dfu_ver_validation.o ABSOLUTE
    ..\\..\\..\\..\\..\\components\\libraries\\bootloader\\nrf_bootloader.c 0x00000000   Number         0  nrf_bootloader.o ABSOLUTE
    ..\\..\\..\\..\\..\\components\\libraries\\bootloader\\nrf_bootloader_app_start.c 0x00000000   Number         0  nrf_bootloader_app_start.o ABSOLUTE
    ..\\..\\..\\..\\..\\components\\libraries\\bootloader\\nrf_bootloader_app_start_final.c 0x00000000   Number         0  nrf_bootloader_app_start_final.o ABSOLUTE
    ..\\..\\..\\..\\..\\components\\libraries\\bootloader\\nrf_bootloader_dfu_timers.c 0x00000000   Number         0  nrf_bootloader_dfu_timers.o ABSOLUTE
    ..\\..\\..\\..\\..\\components\\libraries\\bootloader\\nrf_bootloader_fw_activation.c 0x00000000   Number         0  nrf_bootloader_fw_activation.o ABSOLUTE
    ..\\..\\..\\..\\..\\components\\libraries\\bootloader\\nrf_bootloader_info.c 0x00000000   Number         0  nrf_bootloader_info.o ABSOLUTE
    ..\\..\\..\\..\\..\\components\\libraries\\bootloader\\nrf_bootloader_wdt.c 0x00000000   Number         0  nrf_bootloader_wdt.o ABSOLUTE
    ..\\..\\..\\..\\..\\components\\libraries\\crc32\\crc32.c 0x00000000   Number         0  crc32.o ABSOLUTE
    ..\\..\\..\\..\\..\\components\\libraries\\crypto\\backend\\micro_ecc\\micro_ecc_backend_ecc.c 0x00000000   Number         0  micro_ecc_backend_ecc.o ABSOLUTE
    ..\\..\\..\\..\\..\\components\\libraries\\crypto\\backend\\micro_ecc\\micro_ecc_backend_ecdh.c 0x00000000   Number         0  micro_ecc_backend_ecdh.o ABSOLUTE
    ..\\..\\..\\..\\..\\components\\libraries\\crypto\\backend\\micro_ecc\\micro_ecc_backend_ecdsa.c 0x00000000   Number         0  micro_ecc_backend_ecdsa.o ABSOLUTE
    ..\\..\\..\\..\\..\\components\\libraries\\crypto\\backend\\nrf_sw\\nrf_sw_backend_hash.c 0x00000000   Number         0  nrf_sw_backend_hash.o ABSOLUTE
    ..\\..\\..\\..\\..\\components\\libraries\\crypto\\backend\\oberon\\oberon_backend_chacha_poly_aead.c 0x00000000   Number         0  oberon_backend_chacha_poly_aead.o ABSOLUTE
    ..\\..\\..\\..\\..\\components\\libraries\\crypto\\backend\\oberon\\oberon_backend_hash.c 0x00000000   Number         0  oberon_backend_hash.o ABSOLUTE
    ..\\..\\..\\..\\..\\components\\libraries\\crypto\\backend\\oberon\\oberon_backend_hmac.c 0x00000000   Number         0  oberon_backend_hmac.o ABSOLUTE
    ..\\..\\..\\..\\..\\components\\libraries\\crypto\\nrf_crypto_ecc.c 0x00000000   Number         0  nrf_crypto_ecc.o ABSOLUTE
    ..\\..\\..\\..\\..\\components\\libraries\\crypto\\nrf_crypto_ecdsa.c 0x00000000   Number         0  nrf_crypto_ecdsa.o ABSOLUTE
    ..\\..\\..\\..\\..\\components\\libraries\\crypto\\nrf_crypto_hash.c 0x00000000   Number         0  nrf_crypto_hash.o ABSOLUTE
    ..\\..\\..\\..\\..\\components\\libraries\\crypto\\nrf_crypto_init.c 0x00000000   Number         0  nrf_crypto_init.o ABSOLUTE
    ..\\..\\..\\..\\..\\components\\libraries\\crypto\\nrf_crypto_shared.c 0x00000000   Number         0  nrf_crypto_shared.o ABSOLUTE
    ..\\..\\..\\..\\..\\components\\libraries\\experimental_section_vars\\nrf_section_iter.c 0x00000000   Number         0  nrf_section_iter.o ABSOLUTE
    ..\\..\\..\\..\\..\\components\\libraries\\fstorage\\nrf_fstorage.c 0x00000000   Number         0  nrf_fstorage.o ABSOLUTE
    ..\\..\\..\\..\\..\\components\\libraries\\fstorage\\nrf_fstorage_nvmc.c 0x00000000   Number         0  nrf_fstorage_nvmc.o ABSOLUTE
    ..\\..\\..\\..\\..\\components\\libraries\\fstorage\\nrf_fstorage_sd.c 0x00000000   Number         0  nrf_fstorage_sd.o ABSOLUTE
    ..\\..\\..\\..\\..\\components\\libraries\\mem_manager\\mem_manager.c 0x00000000   Number         0  mem_manager.o ABSOLUTE
    ..\\..\\..\\..\\..\\components\\libraries\\queue\\nrf_queue.c 0x00000000   Number         0  nrf_queue.o ABSOLUTE
    ..\\..\\..\\..\\..\\components\\libraries\\ringbuf\\nrf_ringbuf.c 0x00000000   Number         0  nrf_ringbuf.o ABSOLUTE
    ..\\..\\..\\..\\..\\components\\libraries\\scheduler\\app_scheduler.c 0x00000000   Number         0  app_scheduler.o ABSOLUTE
    ..\\..\\..\\..\\..\\components\\libraries\\sha256\\sha256.c 0x00000000   Number         0  sha256.o ABSOLUTE
    ..\\..\\..\\..\\..\\components\\libraries\\strerror\\nrf_strerror.c 0x00000000   Number         0  nrf_strerror.o ABSOLUTE
    ..\\..\\..\\..\\..\\components\\libraries\\svc\\nrf_svc_handler.c 0x00000000   Number         0  nrf_svc_handler.o ABSOLUTE
    ..\\..\\..\\..\\..\\components\\libraries\\util\\app_error_weak.c 0x00000000   Number         0  app_error_weak.o ABSOLUTE
    ..\\..\\..\\..\\..\\components\\libraries\\util\\app_util_platform.c 0x00000000   Number         0  app_util_platform.o ABSOLUTE
    ..\\..\\..\\..\\..\\components\\libraries\\util\\nrf_assert.c 0x00000000   Number         0  nrf_assert.o ABSOLUTE
    ..\\..\\..\\..\\..\\components\\softdevice\\common\\nrf_sdh.c 0x00000000   Number         0  nrf_sdh.o ABSOLUTE
    ..\\..\\..\\..\\..\\components\\softdevice\\common\\nrf_sdh_ble.c 0x00000000   Number         0  nrf_sdh_ble.o ABSOLUTE
    ..\\..\\..\\..\\..\\components\\softdevice\\common\\nrf_sdh_soc.c 0x00000000   Number         0  nrf_sdh_soc.o ABSOLUTE
    ..\\..\\..\\..\\..\\modules\\nrfx\\hal\\nrf_nvmc.c 0x00000000   Number         0  nrf_nvmc.o ABSOLUTE
    ..\\..\\..\\..\\..\\modules\\nrfx\\soc\\nrfx_atomic.c 0x00000000   Number         0  nrfx_atomic.o ABSOLUTE
    ..\\..\\main.c                           0x00000000   Number         0  main.o ABSOLUTE
    RTE\Device\nRF52820_xxAA\arm_startup_nrf52820.s 0x00000000   Number         0  arm_startup_nrf52820.o ABSOLUTE
    RTE\Device\nRF52820_xxAA\system_nrf52820.c 0x00000000   Number         0  system_nrf52820.o ABSOLUTE
    RTE\\Device\\nRF52820_xxAA\\system_nrf52820.c 0x00000000   Number         0  system_nrf52820.o ABSOLUTE
    dc.s                                     0x00000000   Number         0  dc.o ABSOLUTE
    handlers.s                               0x00000000   Number         0  handlers.o ABSOLUTE
    init.s                                   0x00000000   Number         0  init.o ABSOLUTE
    uECC.c                                   0x00000000   Number         0  uECC.c.o ABSOLUTE
    RESET                                    0x00038000   Section      512  arm_startup_nrf52820.o(RESET)
    .ARM.Collect$$$$00000000                 0x00038200   Section        0  entry.o(.ARM.Collect$$$$00000000)
    .ARM.Collect$$$$00000001                 0x00038200   Section        4  entry2.o(.ARM.Collect$$$$00000001)
    .ARM.Collect$$$$00000004                 0x00038204   Section        4  entry5.o(.ARM.Collect$$$$00000004)
    .ARM.Collect$$$$00000008                 0x00038208   Section        0  entry7b.o(.ARM.Collect$$$$00000008)
    .ARM.Collect$$$$0000000A                 0x00038208   Section        0  entry8b.o(.ARM.Collect$$$$0000000A)
    .ARM.Collect$$$$0000000B                 0x00038208   Section        8  entry9a.o(.ARM.Collect$$$$0000000B)
    .ARM.Collect$$$$0000000D                 0x00038210   Section        0  entry10a.o(.ARM.Collect$$$$0000000D)
    .ARM.Collect$$$$0000000F                 0x00038210   Section        0  entry11a.o(.ARM.Collect$$$$0000000F)
    .ARM.Collect$$$$00002712                 0x00038210   Section        4  entry2.o(.ARM.Collect$$$$00002712)
    __lit__00000000                          0x00038210   Data           4  entry2.o(.ARM.Collect$$$$00002712)
    .emb_text                                0x00038214   Section      200  nrf_atfifo.o(.emb_text)
    .emb_text                                0x000382dc   Section      226  nrf_atomic.o(.emb_text)
    .emb_text                                0x000383c0   Section       20  nrf_svc_handler.o(.emb_text)
    .text                                    0x000383d4   Section       36  arm_startup_nrf52820.o(.text)
    .text                                    0x000383f8   Section        0  llshl.o(.text)
    .text                                    0x00038416   Section        0  memcpya.o(.text)
    .text                                    0x0003843a   Section        0  memseta.o(.text)
    .text                                    0x0003845e   Section        0  memcmp.o(.text)
    .text                                    0x00038478   Section       36  init.o(.text)
    [Anonymous Symbol]                       0x0003849c   Section        0  uECC.c.o(.text.XYcZ_add)
    XYcZ_add                                 0x0003849d   Thumb Code   202  uECC.c.o(.text.XYcZ_add)
    [Anonymous Symbol]                       0x00038566   Section        0  uECC.c.o(.text.apply_z)
    apply_z                                  0x00038567   Thumb Code    62  uECC.c.o(.text.apply_z)
    [Anonymous Symbol]                       0x000385a4   Section        0  uECC.c.o(.text.bcopy)
    bcopy                                    0x000385a5   Thumb Code    12  uECC.c.o(.text.bcopy)
    [Anonymous Symbol]                       0x000385b0   Section        0  uECC.c.o(.text.bits2int)
    bits2int                                 0x000385b1   Thumb Code   136  uECC.c.o(.text.bits2int)
    [Anonymous Symbol]                       0x00038638   Section        0  uECC.c.o(.text.double_jacobian_default)
    double_jacobian_default                  0x00038639   Thumb Code   340  uECC.c.o(.text.double_jacobian_default)
    [Anonymous Symbol]                       0x0003878c   Section        0  uECC.c.o(.text.uECC_secp256r1)
    [Anonymous Symbol]                       0x00038794   Section        0  uECC.c.o(.text.uECC_verify)
    [Anonymous Symbol]                       0x00038a70   Section        0  uECC.c.o(.text.uECC_vli_add)
    [Anonymous Symbol]                       0x00038ac8   Section        0  uECC.c.o(.text.uECC_vli_clear)
    [Anonymous Symbol]                       0x00038ae0   Section        0  uECC.c.o(.text.uECC_vli_cmp_unsafe)
    uECC_vli_cmp_unsafe                      0x00038ae1   Thumb Code    42  uECC.c.o(.text.uECC_vli_cmp_unsafe)
    [Anonymous Symbol]                       0x00038b0a   Section        0  uECC.c.o(.text.uECC_vli_equal)
    [Anonymous Symbol]                       0x00038b34   Section        0  uECC.c.o(.text.uECC_vli_isZero)
    [Anonymous Symbol]                       0x00038b54   Section        0  uECC.c.o(.text.uECC_vli_mmod)
    [Anonymous Symbol]                       0x00038c90   Section        0  uECC.c.o(.text.uECC_vli_modAdd)
    [Anonymous Symbol]                       0x00038cc2   Section        0  uECC.c.o(.text.uECC_vli_modInv)
    [Anonymous Symbol]                       0x00038dce   Section        0  uECC.c.o(.text.uECC_vli_modMult)
    [Anonymous Symbol]                       0x00038df2   Section        0  uECC.c.o(.text.uECC_vli_modMult_fast)
    [Anonymous Symbol]                       0x00038e12   Section        0  uECC.c.o(.text.uECC_vli_modSquare_fast)
    [Anonymous Symbol]                       0x00038e32   Section        0  uECC.c.o(.text.uECC_vli_modSub)
    [Anonymous Symbol]                       0x00038e56   Section        0  uECC.c.o(.text.uECC_vli_mult)
    [Anonymous Symbol]                       0x00039168   Section        0  uECC.c.o(.text.uECC_vli_numBits)
    [Anonymous Symbol]                       0x000391ac   Section        0  uECC.c.o(.text.uECC_vli_rshift1)
    [Anonymous Symbol]                       0x000391c6   Section        0  uECC.c.o(.text.uECC_vli_set)
    [Anonymous Symbol]                       0x000391e0   Section        0  uECC.c.o(.text.uECC_vli_square)
    [Anonymous Symbol]                       0x00039470   Section        0  uECC.c.o(.text.uECC_vli_sub)
    [Anonymous Symbol]                       0x000394d0   Section        0  uECC.c.o(.text.uECC_vli_testBit)
    [Anonymous Symbol]                       0x000394e4   Section        0  uECC.c.o(.text.vli_mmod_fast_secp256r1)
    vli_mmod_fast_secp256r1                  0x000394e5   Thumb Code   432  uECC.c.o(.text.vli_mmod_fast_secp256r1)
    [Anonymous Symbol]                       0x00039694   Section        0  uECC.c.o(.text.vli_modInv_update)
    vli_modInv_update                        0x00039695   Thumb Code    58  uECC.c.o(.text.vli_modInv_update)
    [Anonymous Symbol]                       0x000396ce   Section        0  uECC.c.o(.text.x_side_default)
    x_side_default                           0x000396cf   Thumb Code    90  uECC.c.o(.text.x_side_default)
    i.RTC1_IRQHandler                        0x00039728   Section        0  nrf_bootloader_dfu_timers.o(i.RTC1_IRQHandler)
    i.SWI2_EGU2_IRQHandler                   0x0003979c   Section        0  nrf_sdh.o(i.SWI2_EGU2_IRQHandler)
    i.SystemInit                             0x000397a0   Section        0  system_nrf52820.o(i.SystemInit)
    i.WDT_IRQHandler                         0x0003990c   Section        0  nrf_bootloader_wdt.o(i.WDT_IRQHandler)
    i.__scatterload_copy                     0x00039920   Section       14  handlers.o(i.__scatterload_copy)
    i.__scatterload_null                     0x0003992e   Section        2  handlers.o(i.__scatterload_null)
    i.__scatterload_zeroinit                 0x00039930   Section       14  handlers.o(i.__scatterload_zeroinit)
    i.__sd_nvic_app_accessible_irq           0x00039940   Section        0  nrf_sdh.o(i.__sd_nvic_app_accessible_irq)
    __sd_nvic_app_accessible_irq             0x00039941   Thumb Code    32  nrf_sdh.o(i.__sd_nvic_app_accessible_irq)
    i.addr_is_aligned32                      0x00039964   Section        0  nrf_fstorage.o(i.addr_is_aligned32)
    addr_is_aligned32                        0x00039965   Thumb Code    12  nrf_fstorage.o(i.addr_is_aligned32)
    i.addr_is_within_bounds                  0x00039970   Section        0  nrf_fstorage.o(i.addr_is_within_bounds)
    addr_is_within_bounds                    0x00039971   Thumb Code    24  nrf_fstorage.o(i.addr_is_within_bounds)
    i.advertising_init                       0x00039988   Section        0  nrf_dfu_ble.o(i.advertising_init)
    advertising_init                         0x00039989   Thumb Code    96  nrf_dfu_ble.o(i.advertising_init)
    i.advertising_start                      0x000399f4   Section        0  nrf_dfu_ble.o(i.advertising_start)
    advertising_start                        0x000399f5   Thumb Code    44  nrf_dfu_ble.o(i.advertising_start)
    i.app_activate                           0x00039a28   Section        0  nrf_bootloader_fw_activation.o(i.app_activate)
    app_activate                             0x00039a29   Thumb Code    66  nrf_bootloader_fw_activation.o(i.app_activate)
    i.app_error_fault_handler                0x00039a70   Section        0  main.o(i.app_error_fault_handler)
    i.app_error_handler_bare                 0x00039a74   Section        0  main.o(i.app_error_handler_bare)
    i.app_sched_event_put                    0x00039a78   Section        0  app_scheduler.o(i.app_sched_event_put)
    i.app_sched_execute                      0x00039b18   Section        0  app_scheduler.o(i.app_sched_execute)
    i.app_sched_init                         0x00039b58   Section        0  app_scheduler.o(i.app_sched_init)
    i.app_util_critical_region_enter         0x00039b84   Section        0  app_util_platform.o(i.app_util_critical_region_enter)
    i.app_util_critical_region_exit          0x00039bcc   Section        0  app_util_platform.o(i.app_util_critical_region_exit)
    i.bl_activate                            0x00039c00   Section        0  nrf_bootloader_fw_activation.o(i.bl_activate)
    bl_activate                              0x00039c01   Thumb Code    66  nrf_bootloader_fw_activation.o(i.bl_activate)
    i.ble_dfu_init                           0x00039c4c   Section        0  nrf_dfu_ble.o(i.ble_dfu_init)
    i.ble_dfu_req_handler_callback           0x00039d10   Section        0  nrf_dfu_ble.o(i.ble_dfu_req_handler_callback)
    ble_dfu_req_handler_callback             0x00039d11   Thumb Code   180  nrf_dfu_ble.o(i.ble_dfu_req_handler_callback)
    i.ble_dfu_transport_close                0x00039dc8   Section        0  nrf_dfu_ble.o(i.ble_dfu_transport_close)
    i.ble_dfu_transport_init                 0x00039e28   Section        0  nrf_dfu_ble.o(i.ble_dfu_transport_init)
    i.ble_evt_handler                        0x00039ec0   Section        0  nrf_dfu_ble.o(i.ble_evt_handler)
    ble_evt_handler                          0x00039ec1   Thumb Code   456  nrf_dfu_ble.o(i.ble_evt_handler)
    i.ble_srv_is_notification_enabled        0x0003a098   Section        0  ble_srv_common.o(i.ble_srv_is_notification_enabled)
    i.boot_validate                          0x0003a0a0   Section        0  nrf_bootloader.o(i.boot_validate)
    boot_validate                            0x0003a0a1   Thumb Code    16  nrf_bootloader.o(i.boot_validate)
    i.boot_validation_crc                    0x0003a0b0   Section        0  nrf_dfu_settings.o(i.boot_validation_crc)
    boot_validation_crc                      0x0003a0b1   Thumb Code    12  nrf_dfu_settings.o(i.boot_validation_crc)
    i.boot_validation_extract                0x0003a0bc   Section        0  nrf_dfu_validation.o(i.boot_validation_extract)
    boot_validation_extract                  0x0003a0bd   Thumb Code   146  nrf_dfu_validation.o(i.boot_validation_extract)
    i.bootloader_reset                       0x0003a154   Section        0  nrf_bootloader.o(i.bootloader_reset)
    bootloader_reset                         0x0003a155   Thumb Code    28  nrf_bootloader.o(i.bootloader_reset)
    i.bsp_board_init                         0x0003a178   Section        0  boards.o(i.bsp_board_init)
    i.bsp_board_led_off                      0x0003a1cc   Section        0  boards.o(i.bsp_board_led_off)
    i.bsp_board_led_on                       0x0003a1dc   Section        0  boards.o(i.bsp_board_led_on)
    i.bsp_board_leds_off                     0x0003a1ec   Section        0  boards.o(i.bsp_board_leds_off)
    i.buf_read                               0x0003a1fe   Section        0  pb_decode.o(i.buf_read)
    buf_read                                 0x0003a1ff   Thumb Code    28  pb_decode.o(i.buf_read)
    i.cmd_response_offset_and_crc_set        0x0003a21c   Section        0  nrf_dfu_req_handler.o(i.cmd_response_offset_and_crc_set)
    cmd_response_offset_and_crc_set          0x0003a21d   Thumb Code    12  nrf_dfu_req_handler.o(i.cmd_response_offset_and_crc_set)
    i.crc32_compute                          0x0003a22c   Section        0  crc32.o(i.crc32_compute)
    i.crc_ok                                 0x0003a268   Section        0  nrf_dfu_settings.o(i.crc_ok)
    crc_ok                                   0x0003a269   Thumb Code    30  nrf_dfu_settings.o(i.crc_ok)
    i.crypto_init                            0x0003a288   Section        0  nrf_dfu_validation.o(i.crypto_init)
    crypto_init                              0x0003a289   Thumb Code    46  nrf_dfu_validation.o(i.crypto_init)
    i.decode_callback_field                  0x0003a2c8   Section        0  pb_decode.o(i.decode_callback_field)
    decode_callback_field                    0x0003a2c9   Thumb Code   126  pb_decode.o(i.decode_callback_field)
    i.decode_field                           0x0003a346   Section        0  pb_decode.o(i.decode_field)
    decode_field                             0x0003a347   Thumb Code    26  pb_decode.o(i.decode_field)
    i.decode_static_field                    0x0003a360   Section        0  pb_decode.o(i.decode_static_field)
    decode_static_field                      0x0003a361   Thumb Code   220  pb_decode.o(i.decode_static_field)
    i.dfu_enter_check                        0x0003a440   Section        0  nrf_bootloader.o(i.dfu_enter_check)
    dfu_enter_check                          0x0003a441   Thumb Code   134  nrf_bootloader.o(i.dfu_enter_check)
    i.dfu_fstorage_evt_handler               0x0003a4dc   Section        0  nrf_dfu_flash.o(i.dfu_fstorage_evt_handler)
    i.dfu_observer                           0x0003a4e8   Section        0  main.o(i.dfu_observer)
    dfu_observer                             0x0003a4e9   Thumb Code    64  main.o(i.dfu_observer)
    i.dfu_observer                           0x0003a528   Section        0  nrf_bootloader.o(i.dfu_observer)
    dfu_observer                             0x0003a529   Thumb Code    62  nrf_bootloader.o(i.dfu_observer)
    i.dfu_observer                           0x0003a570   Section        0  nrf_dfu.o(i.dfu_observer)
    dfu_observer                             0x0003a571   Thumb Code    36  nrf_dfu.o(i.dfu_observer)
    i.do_reset                               0x0003a598   Section        0  nrf_bootloader.o(i.do_reset)
    do_reset                                 0x0003a599   Thumb Code    26  nrf_bootloader.o(i.do_reset)
    i.erase                                  0x0003a5bc   Section        0  nrf_fstorage_nvmc.o(i.erase)
    erase                                    0x0003a5bd   Thumb Code    68  nrf_fstorage_nvmc.o(i.erase)
    i.erase                                  0x0003a604   Section        0  nrf_fstorage_sd.o(i.erase)
    erase                                    0x0003a605   Thumb Code    72  nrf_fstorage_sd.o(i.erase)
    i.event_send                             0x0003a650   Section        0  nrf_fstorage_nvmc.o(i.event_send)
    event_send                               0x0003a651   Thumb Code    54  nrf_fstorage_nvmc.o(i.event_send)
    i.event_send                             0x0003a686   Section        0  nrf_fstorage_sd.o(i.event_send)
    event_send                               0x0003a687   Thumb Code    84  nrf_fstorage_sd.o(i.event_send)
    i.ext_err_code_handle                    0x0003a6da   Section        0  nrf_dfu_req_handler.o(i.ext_err_code_handle)
    ext_err_code_handle                      0x0003a6db   Thumb Code    14  nrf_dfu_req_handler.o(i.ext_err_code_handle)
    i.ext_error_get                          0x0003a6e8   Section        0  nrf_dfu_handling_error.o(i.ext_error_get)
    i.ext_error_set                          0x0003a6f8   Section        0  nrf_dfu_handling_error.o(i.ext_error_set)
    i.flash_write_callback                   0x0003a704   Section        0  nrf_bootloader.o(i.flash_write_callback)
    flash_write_callback                     0x0003a705   Thumb Code     8  nrf_bootloader.o(i.flash_write_callback)
    i.flash_write_callback                   0x0003a710   Section        0  nrf_bootloader_fw_activation.o(i.flash_write_callback)
    flash_write_callback                     0x0003a711   Thumb Code     8  nrf_bootloader_fw_activation.o(i.flash_write_callback)
    i.fw_hash_ok                             0x0003a71c   Section        0  nrf_dfu_validation.o(i.fw_hash_ok)
    i.gap_params_init                        0x0003a724   Section        0  nrf_dfu_ble.o(i.gap_params_init)
    gap_params_init                          0x0003a725   Thumb Code    84  nrf_dfu_ble.o(i.gap_params_init)
    i.image_copy                             0x0003a78c   Section        0  nrf_bootloader_fw_activation.o(i.image_copy)
    image_copy                               0x0003a78d   Thumb Code   140  nrf_bootloader_fw_activation.o(i.image_copy)
    i.inactivity_timeout                     0x0003a81c   Section        0  nrf_bootloader.o(i.inactivity_timeout)
    inactivity_timeout                       0x0003a81d   Thumb Code     6  nrf_bootloader.o(i.inactivity_timeout)
    i.init                                   0x0003a824   Section        0  nrf_fstorage_nvmc.o(i.init)
    init                                     0x0003a825   Thumb Code     8  nrf_fstorage_nvmc.o(i.init)
    i.init                                   0x0003a830   Section        0  nrf_fstorage_sd.o(i.init)
    init                                     0x0003a831   Thumb Code    46  nrf_fstorage_sd.o(i.init)
    i.is_busy                                0x0003a868   Section        0  nrf_fstorage_nvmc.o(i.is_busy)
    is_busy                                  0x0003a869   Thumb Code    12  nrf_fstorage_nvmc.o(i.is_busy)
    i.is_busy                                0x0003a878   Section        0  nrf_fstorage_sd.o(i.is_busy)
    is_busy                                  0x0003a879   Thumb Code    12  nrf_fstorage_sd.o(i.is_busy)
    i.is_major_softdevice_update             0x0003a888   Section        0  nrf_dfu_validation.o(i.is_major_softdevice_update)
    is_major_softdevice_update               0x0003a889   Thumb Code    88  nrf_dfu_validation.o(i.is_major_softdevice_update)
    i.iter_from_extension                    0x0003a8e8   Section        0  pb_decode.o(i.iter_from_extension)
    iter_from_extension                      0x0003a8e9   Thumb Code    46  pb_decode.o(i.iter_from_extension)
    i.main                                   0x0003a918   Section        0  main.o(i.main)
    i.nrf_atfifo_clear                       0x0003a948   Section        0  nrf_atfifo.o(i.nrf_atfifo_clear)
    i.nrf_atfifo_init                        0x0003a958   Section        0  nrf_atfifo.o(i.nrf_atfifo_init)
    i.nrf_atfifo_item_alloc                  0x0003a97e   Section        0  nrf_atfifo.o(i.nrf_atfifo_item_alloc)
    i.nrf_atfifo_item_free                   0x0003a994   Section        0  nrf_atfifo.o(i.nrf_atfifo_item_free)
    i.nrf_atfifo_item_get                    0x0003a9aa   Section        0  nrf_atfifo.o(i.nrf_atfifo_item_get)
    i.nrf_atfifo_item_put                    0x0003a9c0   Section        0  nrf_atfifo.o(i.nrf_atfifo_item_put)
    i.nrf_atomic_flag_clear                  0x0003a9d6   Section        0  nrf_atomic.o(i.nrf_atomic_flag_clear)
    i.nrf_atomic_flag_set_fetch              0x0003a9dc   Section        0  nrf_atomic.o(i.nrf_atomic_flag_set_fetch)
    i.nrf_atomic_u32_and                     0x0003a9e2   Section        0  nrf_atomic.o(i.nrf_atomic_u32_and)
    i.nrf_atomic_u32_fetch_or                0x0003a9ee   Section        0  nrf_atomic.o(i.nrf_atomic_u32_fetch_or)
    i.nrf_balloc_alloc                       0x0003a9f8   Section        0  nrf_balloc.o(i.nrf_balloc_alloc)
    i.nrf_balloc_free                        0x0003aa3c   Section        0  nrf_balloc.o(i.nrf_balloc_free)
    i.nrf_balloc_init                        0x0003aa6c   Section        0  nrf_balloc.o(i.nrf_balloc_init)
    i.nrf_bootloader_app_start               0x0003aa9c   Section        0  nrf_bootloader_app_start.o(i.nrf_bootloader_app_start)
    i.nrf_bootloader_app_start_final         0x0003aac0   Section        0  nrf_bootloader_app_start_final.o(i.nrf_bootloader_app_start_final)
    i.nrf_bootloader_dfu_inactivity_timer_restart 0x0003ab20   Section        0  nrf_bootloader_dfu_timers.o(i.nrf_bootloader_dfu_inactivity_timer_restart)
    i.nrf_bootloader_flash_protect           0x0003ab48   Section        0  nrf_bootloader_app_start_final.o(i.nrf_bootloader_flash_protect)
    i.nrf_bootloader_fw_activate             0x0003ab88   Section        0  nrf_bootloader_fw_activation.o(i.nrf_bootloader_fw_activate)
    i.nrf_bootloader_init                    0x0003abfc   Section        0  nrf_bootloader.o(i.nrf_bootloader_init)
    i.nrf_bootloader_mbr_addrs_populate      0x0003ad28   Section        0  nrf_bootloader_info.o(i.nrf_bootloader_mbr_addrs_populate)
    i.nrf_bootloader_wdt_feed                0x0003ad58   Section        0  nrf_bootloader_wdt.o(i.nrf_bootloader_wdt_feed)
    i.nrf_bootloader_wdt_feed_timer_start    0x0003ad6c   Section        0  nrf_bootloader_dfu_timers.o(i.nrf_bootloader_wdt_feed_timer_start)
    i.nrf_bootloader_wdt_init                0x0003ad80   Section        0  nrf_bootloader_wdt.o(i.nrf_bootloader_wdt_init)
    i.nrf_crypto_backend_micro_ecc_curve_get 0x0003adc8   Section        0  micro_ecc_backend_ecc.o(i.nrf_crypto_backend_micro_ecc_curve_get)
    i.nrf_crypto_backend_micro_ecc_public_key_from_raw 0x0003adce   Section        0  micro_ecc_backend_ecc.o(i.nrf_crypto_backend_micro_ecc_public_key_from_raw)
    i.nrf_crypto_backend_micro_ecc_verify    0x0003adde   Section        0  micro_ecc_backend_ecdsa.o(i.nrf_crypto_backend_micro_ecc_verify)
    i.nrf_crypto_ecc_public_key_from_raw     0x0003ae34   Section        0  nrf_crypto_ecc.o(i.nrf_crypto_ecc_public_key_from_raw)
    i.nrf_crypto_ecdsa_verify                0x0003ae68   Section        0  nrf_crypto_ecdsa.o(i.nrf_crypto_ecdsa_verify)
    i.nrf_crypto_hash_calculate              0x0003aeb4   Section        0  nrf_crypto_hash.o(i.nrf_crypto_hash_calculate)
    i.nrf_crypto_hash_finalize               0x0003aeea   Section        0  nrf_crypto_hash.o(i.nrf_crypto_hash_finalize)
    i.nrf_crypto_hash_init                   0x0003af20   Section        0  nrf_crypto_hash.o(i.nrf_crypto_hash_init)
    i.nrf_crypto_hash_update                 0x0003af4c   Section        0  nrf_crypto_hash.o(i.nrf_crypto_hash_update)
    i.nrf_crypto_init                        0x0003af7c   Section        0  nrf_crypto_init.o(i.nrf_crypto_init)
    i.nrf_crypto_internal_double_swap_endian 0x0003afbc   Section        0  nrf_crypto_shared.o(i.nrf_crypto_internal_double_swap_endian)
    i.nrf_crypto_internal_double_swap_endian_in_place 0x0003afd6   Section        0  nrf_crypto_shared.o(i.nrf_crypto_internal_double_swap_endian_in_place)
    i.nrf_crypto_internal_ecc_key_input_check 0x0003afec   Section        0  nrf_crypto_ecc.o(i.nrf_crypto_internal_ecc_key_input_check)
    i.nrf_crypto_internal_ecc_key_output_prepare 0x0003b004   Section        0  nrf_crypto_ecc.o(i.nrf_crypto_internal_ecc_key_output_prepare)
    i.nrf_crypto_internal_ecc_raw_input_check 0x0003b01e   Section        0  nrf_crypto_ecc.o(i.nrf_crypto_internal_ecc_raw_input_check)
    i.nrf_crypto_internal_swap_endian        0x0003b034   Section        0  nrf_crypto_shared.o(i.nrf_crypto_internal_swap_endian)
    i.nrf_crypto_internal_swap_endian_in_place 0x0003b04a   Section        0  nrf_crypto_shared.o(i.nrf_crypto_internal_swap_endian_in_place)
    i.nrf_dfu_bank0_start_addr               0x0003b064   Section        0  nrf_dfu_utils.o(i.nrf_dfu_bank0_start_addr)
    i.nrf_dfu_bank1_start_addr               0x0003b08c   Section        0  nrf_dfu_utils.o(i.nrf_dfu_bank1_start_addr)
    i.nrf_dfu_bank_invalidate                0x0003b0ac   Section        0  nrf_dfu_utils.o(i.nrf_dfu_bank_invalidate)
    i.nrf_dfu_cache_prepare                  0x0003b0c0   Section        0  nrf_dfu_utils.o(i.nrf_dfu_cache_prepare)
    i.nrf_dfu_command_req                    0x0003b158   Section        0  nrf_dfu_req_handler.o(i.nrf_dfu_command_req)
    nrf_dfu_command_req                      0x0003b159   Thumb Code   142  nrf_dfu_req_handler.o(i.nrf_dfu_command_req)
    i.nrf_dfu_data_req                       0x0003b1ec   Section        0  nrf_dfu_req_handler.o(i.nrf_dfu_data_req)
    nrf_dfu_data_req                         0x0003b1ed   Thumb Code   108  nrf_dfu_req_handler.o(i.nrf_dfu_data_req)
    i.nrf_dfu_flash_erase                    0x0003b260   Section        0  nrf_dfu_flash.o(i.nrf_dfu_flash_erase)
    i.nrf_dfu_flash_init                     0x0003b270   Section        0  nrf_dfu_flash.o(i.nrf_dfu_flash_init)
    i.nrf_dfu_flash_store                    0x0003b28c   Section        0  nrf_dfu_flash.o(i.nrf_dfu_flash_store)
    i.nrf_dfu_init                           0x0003b2a4   Section        0  nrf_dfu.o(i.nrf_dfu_init)
    i.nrf_dfu_init_user                      0x0003b2d0   Section        0  nrf_bootloader.o(i.nrf_dfu_init_user)
    i.nrf_dfu_mbr_copy_bl                    0x0003b2d4   Section        0  nrf_dfu_mbr.o(i.nrf_dfu_mbr_copy_bl)
    i.nrf_dfu_mbr_init_sd                    0x0003b2ec   Section        0  nrf_dfu_mbr.o(i.nrf_dfu_mbr_init_sd)
    i.nrf_dfu_mbr_irq_forward_address_set    0x0003b304   Section        0  nrf_dfu_mbr.o(i.nrf_dfu_mbr_irq_forward_address_set)
    i.nrf_dfu_req_handler_init               0x0003b310   Section        0  nrf_dfu_req_handler.o(i.nrf_dfu_req_handler_init)
    i.nrf_dfu_req_handler_on_req             0x0003b354   Section        0  nrf_dfu_req_handler.o(i.nrf_dfu_req_handler_on_req)
    i.nrf_dfu_req_handler_req                0x0003b368   Section        0  nrf_dfu_req_handler.o(i.nrf_dfu_req_handler_req)
    nrf_dfu_req_handler_req                  0x0003b369   Thumb Code     4  nrf_dfu_req_handler.o(i.nrf_dfu_req_handler_req)
    i.nrf_dfu_req_handler_req_process        0x0003b36c   Section        0  nrf_dfu_req_handler.o(i.nrf_dfu_req_handler_req_process)
    nrf_dfu_req_handler_req_process          0x0003b36d   Thumb Code   136  nrf_dfu_req_handler.o(i.nrf_dfu_req_handler_req_process)
    i.nrf_dfu_set_adv_name_handler           0x0003b3fc   Section        0  nrf_dfu_svci_handler.o(i.nrf_dfu_set_adv_name_handler)
    nrf_dfu_set_adv_name_handler             0x0003b3fd   Thumb Code    22  nrf_dfu_svci_handler.o(i.nrf_dfu_set_adv_name_handler)
    i.nrf_dfu_set_adv_name_on_call           0x0003b41c   Section        0  nrf_dfu_svci_handler.o(i.nrf_dfu_set_adv_name_on_call)
    nrf_dfu_set_adv_name_on_call             0x0003b41d   Thumb Code    56  nrf_dfu_svci_handler.o(i.nrf_dfu_set_adv_name_on_call)
    i.nrf_dfu_set_adv_name_on_sys_evt        0x0003b454   Section        0  nrf_dfu_svci_handler.o(i.nrf_dfu_set_adv_name_on_sys_evt)
    nrf_dfu_set_adv_name_on_sys_evt          0x0003b455   Thumb Code    36  nrf_dfu_svci_handler.o(i.nrf_dfu_set_adv_name_on_sys_evt)
    i.nrf_dfu_settings_additional_erase      0x0003b478   Section        0  nrf_dfu_settings_svci.o(i.nrf_dfu_settings_additional_erase)
    i.nrf_dfu_settings_adv_name_copy         0x0003b4ac   Section        0  nrf_dfu_settings_svci.o(i.nrf_dfu_settings_adv_name_copy)
    i.nrf_dfu_settings_adv_name_is_valid     0x0003b4c4   Section        0  nrf_dfu_settings_svci.o(i.nrf_dfu_settings_adv_name_is_valid)
    i.nrf_dfu_settings_adv_name_write        0x0003b4e4   Section        0  nrf_dfu_settings_svci.o(i.nrf_dfu_settings_adv_name_write)
    i.nrf_dfu_settings_backup                0x0003b51c   Section        0  nrf_dfu_settings.o(i.nrf_dfu_settings_backup)
    i.nrf_dfu_settings_init                  0x0003b528   Section        0  nrf_dfu_settings.o(i.nrf_dfu_settings_init)
    i.nrf_dfu_settings_progress_reset        0x0003b544   Section        0  nrf_dfu_settings.o(i.nrf_dfu_settings_progress_reset)
    i.nrf_dfu_settings_reinit                0x0003b56c   Section        0  nrf_dfu_settings.o(i.nrf_dfu_settings_reinit)
    i.nrf_dfu_settings_write                 0x0003b650   Section        0  nrf_dfu_settings.o(i.nrf_dfu_settings_write)
    i.nrf_dfu_settings_write_and_backup      0x0003b684   Section        0  nrf_dfu_settings.o(i.nrf_dfu_settings_write_and_backup)
    i.nrf_dfu_softdevice_start_address       0x0003b6a4   Section        0  nrf_dfu_utils.o(i.nrf_dfu_softdevice_start_address)
    i.nrf_dfu_transports_close               0x0003b6ac   Section        0  nrf_dfu_transport.o(i.nrf_dfu_transports_close)
    i.nrf_dfu_transports_init                0x0003b6e0   Section        0  nrf_dfu_transport.o(i.nrf_dfu_transports_init)
    i.nrf_dfu_validation_activation_prepare  0x0003b714   Section        0  nrf_dfu_validation.o(i.nrf_dfu_validation_activation_prepare)
    i.nrf_dfu_validation_boot_validate       0x0003b71a   Section        0  nrf_dfu_validation.o(i.nrf_dfu_validation_boot_validate)
    i.nrf_dfu_validation_hash_ok             0x0003b76c   Section        0  nrf_dfu_validation.o(i.nrf_dfu_validation_hash_ok)
    nrf_dfu_validation_hash_ok               0x0003b76d   Thumb Code    90  nrf_dfu_validation.o(i.nrf_dfu_validation_hash_ok)
    i.nrf_dfu_validation_init                0x0003b7d0   Section        0  nrf_dfu_validation.o(i.nrf_dfu_validation_init)
    i.nrf_dfu_validation_init_cmd_append     0x0003b7f4   Section        0  nrf_dfu_validation.o(i.nrf_dfu_validation_init_cmd_append)
    i.nrf_dfu_validation_init_cmd_create     0x0003b83c   Section        0  nrf_dfu_validation.o(i.nrf_dfu_validation_init_cmd_create)
    i.nrf_dfu_validation_init_cmd_execute    0x0003b870   Section        0  nrf_dfu_validation.o(i.nrf_dfu_validation_init_cmd_execute)
    i.nrf_dfu_validation_init_cmd_present    0x0003b904   Section        0  nrf_dfu_validation.o(i.nrf_dfu_validation_init_cmd_present)
    i.nrf_dfu_validation_prevalidate         0x0003b910   Section        0  nrf_dfu_validation.o(i.nrf_dfu_validation_prevalidate)
    i.nrf_dfu_validation_signature_check     0x0003b958   Section        0  nrf_dfu_validation.o(i.nrf_dfu_validation_signature_check)
    nrf_dfu_validation_signature_check       0x0003b959   Thumb Code   140  nrf_dfu_validation.o(i.nrf_dfu_validation_signature_check)
    i.nrf_dfu_ver_validation_check           0x0003b9ec   Section        0  nrf_dfu_ver_validation.o(i.nrf_dfu_ver_validation_check)
    i.nrf_fstorage_erase                     0x0003ba6c   Section        0  nrf_fstorage.o(i.nrf_fstorage_erase)
    i.nrf_fstorage_init                      0x0003ba98   Section        0  nrf_fstorage.o(i.nrf_fstorage_init)
    i.nrf_fstorage_is_busy                   0x0003baa0   Section        0  nrf_fstorage.o(i.nrf_fstorage_is_busy)
    i.nrf_fstorage_sdh_req_handler           0x0003baf0   Section        0  nrf_fstorage_sd.o(i.nrf_fstorage_sdh_req_handler)
    i.nrf_fstorage_sdh_state_handler         0x0003bb08   Section        0  nrf_fstorage_sd.o(i.nrf_fstorage_sdh_state_handler)
    i.nrf_fstorage_sys_evt_handler           0x0003bb28   Section        0  nrf_fstorage_sd.o(i.nrf_fstorage_sys_evt_handler)
    i.nrf_fstorage_write                     0x0003bbc8   Section        0  nrf_fstorage.o(i.nrf_fstorage_write)
    i.nrf_gpio_cfg                           0x0003bc06   Section        0  boards.o(i.nrf_gpio_cfg)
    nrf_gpio_cfg                             0x0003bc07   Thumb Code    36  boards.o(i.nrf_gpio_cfg)
    i.nrf_gpio_pin_write                     0x0003bc2a   Section        0  boards.o(i.nrf_gpio_pin_write)
    nrf_gpio_pin_write                       0x0003bc2b   Thumb Code    22  boards.o(i.nrf_gpio_pin_write)
    i.nrf_nvmc_page_erase                    0x0003bc40   Section        0  nrf_nvmc.o(i.nrf_nvmc_page_erase)
    i.nrf_nvmc_write_word                    0x0003bc70   Section        0  nrf_nvmc.o(i.nrf_nvmc_write_word)
    i.nrf_nvmc_write_words                   0x0003bca0   Section        0  nrf_nvmc.o(i.nrf_nvmc_write_words)
    i.nrf_power_gpregret_get                 0x0003bce4   Section        0  nrf_bootloader.o(i.nrf_power_gpregret_get)
    nrf_power_gpregret_get                   0x0003bce5   Thumb Code     8  nrf_bootloader.o(i.nrf_power_gpregret_get)
    i.nrf_rtc_event_clear                    0x0003bcf0   Section        0  nrf_bootloader_dfu_timers.o(i.nrf_rtc_event_clear)
    nrf_rtc_event_clear                      0x0003bcf1   Thumb Code    12  nrf_bootloader_dfu_timers.o(i.nrf_rtc_event_clear)
    i.nrf_sdh_ble_app_ram_start_get          0x0003bcfc   Section        0  nrf_sdh_ble.o(i.nrf_sdh_ble_app_ram_start_get)
    i.nrf_sdh_ble_default_cfg_set            0x0003bd10   Section        0  nrf_sdh_ble.o(i.nrf_sdh_ble_default_cfg_set)
    i.nrf_sdh_ble_enable                     0x0003bdac   Section        0  nrf_sdh_ble.o(i.nrf_sdh_ble_enable)
    i.nrf_sdh_ble_evts_poll                  0x0003bdc0   Section        0  nrf_sdh_ble.o(i.nrf_sdh_ble_evts_poll)
    nrf_sdh_ble_evts_poll                    0x0003bdc1   Thumb Code    88  nrf_sdh_ble.o(i.nrf_sdh_ble_evts_poll)
    i.nrf_sdh_disable_request                0x0003be20   Section        0  nrf_sdh.o(i.nrf_sdh_disable_request)
    i.nrf_sdh_enable_request                 0x0003be74   Section        0  nrf_sdh.o(i.nrf_sdh_enable_request)
    i.nrf_sdh_evts_poll                      0x0003bee8   Section        0  nrf_sdh.o(i.nrf_sdh_evts_poll)
    i.nrf_sdh_is_enabled                     0x0003bf0c   Section        0  nrf_sdh.o(i.nrf_sdh_is_enabled)
    i.nrf_sdh_request_continue               0x0003bf18   Section        0  nrf_sdh.o(i.nrf_sdh_request_continue)
    i.nrf_sdh_soc_evts_poll                  0x0003bf34   Section        0  nrf_sdh_soc.o(i.nrf_sdh_soc_evts_poll)
    nrf_sdh_soc_evts_poll                    0x0003bf35   Thumb Code    56  nrf_sdh_soc.o(i.nrf_sdh_soc_evts_poll)
    i.nrf_section_iter_init                  0x0003bf70   Section        0  nrf_section_iter.o(i.nrf_section_iter_init)
    i.nrf_section_iter_item_set              0x0003bf7a   Section        0  nrf_section_iter.o(i.nrf_section_iter_item_set)
    nrf_section_iter_item_set                0x0003bf7b   Thumb Code    36  nrf_section_iter.o(i.nrf_section_iter_item_set)
    i.nrf_section_iter_next                  0x0003bf9e   Section        0  nrf_section_iter.o(i.nrf_section_iter_next)
    i.nrf_svc_handler_c                      0x0003bfc0   Section        0  nrf_svc_handler.o(i.nrf_svc_handler_c)
    __tagsym$$used                           0x0003bfc1   Number         0  nrf_svc_handler.o(i.nrf_svc_handler_c)
    i.nrf_sw_backend_hash_sha256_finalize    0x0003c01c   Section        0  nrf_sw_backend_hash.o(i.nrf_sw_backend_hash_sha256_finalize)
    nrf_sw_backend_hash_sha256_finalize      0x0003c01d   Thumb Code    36  nrf_sw_backend_hash.o(i.nrf_sw_backend_hash_sha256_finalize)
    i.nrf_sw_backend_hash_sha256_init        0x0003c040   Section        0  nrf_sw_backend_hash.o(i.nrf_sw_backend_hash_sha256_init)
    nrf_sw_backend_hash_sha256_init          0x0003c041   Thumb Code     6  nrf_sw_backend_hash.o(i.nrf_sw_backend_hash_sha256_init)
    i.nrf_sw_backend_hash_sha256_update      0x0003c046   Section        0  nrf_sw_backend_hash.o(i.nrf_sw_backend_hash_sha256_update)
    nrf_sw_backend_hash_sha256_update        0x0003c047   Thumb Code     6  nrf_sw_backend_hash.o(i.nrf_sw_backend_hash_sha256_update)
    i.nrf_wdt_started                        0x0003c04c   Section        0  nrf_bootloader_wdt.o(i.nrf_wdt_started)
    nrf_wdt_started                          0x0003c04d   Thumb Code    12  nrf_bootloader_wdt.o(i.nrf_wdt_started)
    i.on_ctrl_pt_write                       0x0003c05c   Section        0  nrf_dfu_ble.o(i.on_ctrl_pt_write)
    on_ctrl_pt_write                         0x0003c05d   Thumb Code    98  nrf_dfu_ble.o(i.on_ctrl_pt_write)
    i.on_data_obj_create_request             0x0003c0cc   Section        0  nrf_dfu_req_handler.o(i.on_data_obj_create_request)
    on_data_obj_create_request               0x0003c0cd   Thumb Code   108  nrf_dfu_req_handler.o(i.on_data_obj_create_request)
    i.on_data_obj_execute_request_sched      0x0003c140   Section        0  nrf_dfu_req_handler.o(i.on_data_obj_execute_request_sched)
    on_data_obj_execute_request_sched        0x0003c141   Thumb Code   100  nrf_dfu_req_handler.o(i.on_data_obj_execute_request_sched)
    i.on_data_obj_write_request              0x0003c1b8   Section        0  nrf_dfu_req_handler.o(i.on_data_obj_write_request)
    on_data_obj_write_request                0x0003c1b9   Thumb Code   118  nrf_dfu_req_handler.o(i.on_data_obj_write_request)
    i.on_dfu_complete                        0x0003c238   Section        0  nrf_dfu_req_handler.o(i.on_dfu_complete)
    on_dfu_complete                          0x0003c239   Thumb Code     8  nrf_dfu_req_handler.o(i.on_dfu_complete)
    i.on_error                               0x0003c244   Section        0  main.o(i.on_error)
    on_error                                 0x0003c245   Thumb Code    26  main.o(i.on_error)
    i.on_flash_write                         0x0003c268   Section        0  nrf_dfu_ble.o(i.on_flash_write)
    on_flash_write                           0x0003c269   Thumb Code     8  nrf_dfu_ble.o(i.on_flash_write)
    i.on_rw_authorize_req                    0x0003c274   Section        0  nrf_dfu_ble.o(i.on_rw_authorize_req)
    on_rw_authorize_req                      0x0003c275   Thumb Code   128  nrf_dfu_ble.o(i.on_rw_authorize_req)
    i.pb_dec_bytes                           0x0003c2fc   Section        0  pb_decode.o(i.pb_dec_bytes)
    pb_dec_bytes                             0x0003c2fd   Thumb Code    66  pb_decode.o(i.pb_dec_bytes)
    i.pb_dec_fixed32                         0x0003c33e   Section        0  pb_decode.o(i.pb_dec_fixed32)
    pb_dec_fixed32                           0x0003c33f   Thumb Code     6  pb_decode.o(i.pb_dec_fixed32)
    i.pb_dec_fixed64                         0x0003c344   Section        0  pb_decode.o(i.pb_dec_fixed64)
    pb_dec_fixed64                           0x0003c345   Thumb Code     6  pb_decode.o(i.pb_dec_fixed64)
    i.pb_dec_string                          0x0003c34a   Section        0  pb_decode.o(i.pb_dec_string)
    pb_dec_string                            0x0003c34b   Thumb Code    62  pb_decode.o(i.pb_dec_string)
    i.pb_dec_submessage                      0x0003c388   Section        0  pb_decode.o(i.pb_dec_submessage)
    pb_dec_submessage                        0x0003c389   Thumb Code    64  pb_decode.o(i.pb_dec_submessage)
    i.pb_dec_svarint                         0x0003c3c8   Section        0  pb_decode.o(i.pb_dec_svarint)
    pb_dec_svarint                           0x0003c3c9   Thumb Code    88  pb_decode.o(i.pb_dec_svarint)
    i.pb_dec_uvarint                         0x0003c420   Section        0  pb_decode.o(i.pb_dec_uvarint)
    pb_dec_uvarint                           0x0003c421   Thumb Code    88  pb_decode.o(i.pb_dec_uvarint)
    i.pb_dec_varint                          0x0003c478   Section        0  pb_decode.o(i.pb_dec_varint)
    pb_dec_varint                            0x0003c479   Thumb Code    90  pb_decode.o(i.pb_dec_varint)
    i.pb_decode                              0x0003c4d2   Section        0  pb_decode.o(i.pb_decode)
    i.pb_decode_fixed32                      0x0003c4f0   Section        0  pb_decode.o(i.pb_decode_fixed32)
    i.pb_decode_fixed64                      0x0003c510   Section        0  pb_decode.o(i.pb_decode_fixed64)
    i.pb_decode_noinit                       0x0003c56c   Section        0  pb_decode.o(i.pb_decode_noinit)
    i.pb_decode_svarint                      0x0003c6f2   Section        0  pb_decode.o(i.pb_decode_svarint)
    i.pb_decode_tag                          0x0003c72c   Section        0  pb_decode.o(i.pb_decode_tag)
    i.pb_decode_varint                       0x0003c76e   Section        0  pb_decode.o(i.pb_decode_varint)
    i.pb_decode_varint32                     0x0003c7b8   Section        0  pb_decode.o(i.pb_decode_varint32)
    pb_decode_varint32                       0x0003c7b9   Thumb Code    76  pb_decode.o(i.pb_decode_varint32)
    i.pb_decoding_callback                   0x0003c804   Section        0  nrf_dfu_validation.o(i.pb_decoding_callback)
    pb_decoding_callback                     0x0003c805   Thumb Code    52  nrf_dfu_validation.o(i.pb_decoding_callback)
    i.pb_field_iter_begin                    0x0003c840   Section        0  pb_common.o(i.pb_field_iter_begin)
    i.pb_field_iter_find                     0x0003c862   Section        0  pb_common.o(i.pb_field_iter_find)
    i.pb_field_iter_next                     0x0003c890   Section        0  pb_common.o(i.pb_field_iter_next)
    i.pb_field_set_to_default                0x0003c90e   Section        0  pb_decode.o(i.pb_field_set_to_default)
    pb_field_set_to_default                  0x0003c90f   Thumb Code   164  pb_decode.o(i.pb_field_set_to_default)
    i.pb_istream_from_buffer                 0x0003c9b4   Section        0  pb_decode.o(i.pb_istream_from_buffer)
    i.pb_make_string_substream               0x0003c9c8   Section        0  pb_decode.o(i.pb_make_string_substream)
    i.pb_message_set_to_defaults             0x0003c9fe   Section        0  pb_decode.o(i.pb_message_set_to_defaults)
    pb_message_set_to_defaults               0x0003c9ff   Thumb Code    38  pb_decode.o(i.pb_message_set_to_defaults)
    i.pb_read                                0x0003ca24   Section        0  pb_decode.o(i.pb_read)
    i.pb_readbyte                            0x0003ca7c   Section        0  pb_decode.o(i.pb_readbyte)
    pb_readbyte                              0x0003ca7d   Thumb Code    32  pb_decode.o(i.pb_readbyte)
    i.pb_skip_field                          0x0003ca9c   Section        0  pb_decode.o(i.pb_skip_field)
    i.postvalidate                           0x0003caf8   Section        0  nrf_dfu_validation.o(i.postvalidate)
    i.postvalidate_sd_bl                     0x0003cbbc   Section        0  nrf_dfu_validation.o(i.postvalidate_sd_bl)
    postvalidate_sd_bl                       0x0003cbbd   Thumb Code   272  nrf_dfu_validation.o(i.postvalidate_sd_bl)
    i.queue_free                             0x0003ccd8   Section        0  nrf_fstorage_sd.o(i.queue_free)
    queue_free                               0x0003ccd9   Thumb Code    10  nrf_fstorage_sd.o(i.queue_free)
    i.queue_process                          0x0003ccec   Section        0  nrf_fstorage_sd.o(i.queue_process)
    queue_process                            0x0003cced   Thumb Code   144  nrf_fstorage_sd.o(i.queue_process)
    i.queue_start                            0x0003cd88   Section        0  nrf_fstorage_sd.o(i.queue_start)
    queue_start                              0x0003cd89   Thumb Code    30  nrf_fstorage_sd.o(i.queue_start)
    i.read                                   0x0003cdac   Section        0  nrf_fstorage_nvmc.o(i.read)
    read                                     0x0003cdad   Thumb Code    14  nrf_fstorage_nvmc.o(i.read)
    i.read                                   0x0003cdba   Section        0  nrf_fstorage_sd.o(i.read)
    read                                     0x0003cdbb   Thumb Code    14  nrf_fstorage_sd.o(i.read)
    i.read_raw_value                         0x0003cdc8   Section        0  pb_decode.o(i.read_raw_value)
    read_raw_value                           0x0003cdc9   Thumb Code    98  pb_decode.o(i.read_raw_value)
    i.response_crc_add                       0x0003ce2a   Section        0  nrf_dfu_ble.o(i.response_crc_add)
    response_crc_add                         0x0003ce2b   Thumb Code    32  nrf_dfu_ble.o(i.response_crc_add)
    i.response_send                          0x0003ce4c   Section        0  nrf_dfu_ble.o(i.response_send)
    response_send                            0x0003ce4d   Thumb Code    40  nrf_dfu_ble.o(i.response_send)
    i.rmap                                   0x0003ce80   Section        0  nrf_fstorage_nvmc.o(i.rmap)
    rmap                                     0x0003ce81   Thumb Code     4  nrf_fstorage_nvmc.o(i.rmap)
    i.rmap                                   0x0003ce84   Section        0  nrf_fstorage_sd.o(i.rmap)
    rmap                                     0x0003ce85   Thumb Code     4  nrf_fstorage_sd.o(i.rmap)
    i.sd_activate                            0x0003ce88   Section        0  nrf_bootloader_fw_activation.o(i.sd_activate)
    sd_activate                              0x0003ce89   Thumb Code    74  nrf_bootloader_fw_activation.o(i.sd_activate)
    i.sd_req_check                           0x0003cedc   Section        0  nrf_dfu_ver_validation.o(i.sd_req_check)
    sd_req_check                             0x0003cedd   Thumb Code    64  nrf_dfu_ver_validation.o(i.sd_req_check)
    i.sd_req_ok                              0x0003cf20   Section        0  nrf_dfu_ver_validation.o(i.sd_req_ok)
    sd_req_ok                                0x0003cf21   Thumb Code   100  nrf_dfu_ver_validation.o(i.sd_req_ok)
    i.sdh_request_observer_notify            0x0003cf88   Section        0  nrf_sdh.o(i.sdh_request_observer_notify)
    sdh_request_observer_notify              0x0003cf89   Thumb Code    44  nrf_sdh.o(i.sdh_request_observer_notify)
    i.sdh_state_observer_notify              0x0003cfb8   Section        0  nrf_sdh.o(i.sdh_state_observer_notify)
    sdh_state_observer_notify                0x0003cfb9   Thumb Code    38  nrf_sdh.o(i.sdh_state_observer_notify)
    i.settings_backup                        0x0003cfe4   Section        0  nrf_dfu_settings.o(i.settings_backup)
    i.settings_crc_get                       0x0003cff8   Section        0  nrf_dfu_settings.o(i.settings_crc_get)
    settings_crc_get                         0x0003cff9   Thumb Code    10  nrf_dfu_settings.o(i.settings_crc_get)
    i.settings_write                         0x0003d002   Section        0  nrf_dfu_settings.o(i.settings_write)
    settings_write                           0x0003d003   Thumb Code    80  nrf_dfu_settings.o(i.settings_write)
    i.sha256_final                           0x0003d052   Section        0  sha256.o(i.sha256_final)
    i.sha256_init                            0x0003d164   Section        0  sha256.o(i.sha256_init)
    i.sha256_transform                       0x0003d1b8   Section        0  sha256.o(i.sha256_transform)
    i.sha256_update                          0x0003d2e4   Section        0  sha256.o(i.sha256_update)
    i.softdevice_evt_irq_disable             0x0003d338   Section        0  nrf_sdh.o(i.softdevice_evt_irq_disable)
    softdevice_evt_irq_disable               0x0003d339   Thumb Code    60  nrf_sdh.o(i.softdevice_evt_irq_disable)
    i.softdevices_evt_irq_enable             0x0003d378   Section        0  nrf_sdh.o(i.softdevices_evt_irq_enable)
    softdevices_evt_irq_enable               0x0003d379   Thumb Code    80  nrf_sdh.o(i.softdevices_evt_irq_enable)
    i.stored_init_cmd_decode                 0x0003d3d0   Section        0  nrf_dfu_validation.o(i.stored_init_cmd_decode)
    stored_init_cmd_decode                   0x0003d3d1   Thumb Code   172  nrf_dfu_validation.o(i.stored_init_cmd_decode)
    i.timer_activate                         0x0003d498   Section        0  nrf_bootloader_dfu_timers.o(i.timer_activate)
    timer_activate                           0x0003d499   Thumb Code    86  nrf_bootloader_dfu_timers.o(i.timer_activate)
    i.timer_init                             0x0003d4f8   Section        0  nrf_bootloader_dfu_timers.o(i.timer_init)
    timer_init                               0x0003d4f9   Thumb Code    98  nrf_bootloader_dfu_timers.o(i.timer_init)
    i.timer_start                            0x0003d570   Section        0  nrf_bootloader_dfu_timers.o(i.timer_start)
    timer_start                              0x0003d571   Thumb Code    26  nrf_bootloader_dfu_timers.o(i.timer_start)
    i.timer_stop                             0x0003d58c   Section        0  nrf_bootloader_dfu_timers.o(i.timer_stop)
    timer_stop                               0x0003d58d   Thumb Code    16  nrf_bootloader_dfu_timers.o(i.timer_stop)
    i.uint32_encode                          0x0003d5a0   Section        0  nrf_dfu_ble.o(i.uint32_encode)
    uint32_encode                            0x0003d5a1   Thumb Code    18  nrf_dfu_ble.o(i.uint32_encode)
    i.uninit                                 0x0003d5b4   Section        0  nrf_fstorage_nvmc.o(i.uninit)
    uninit                                   0x0003d5b5   Thumb Code    12  nrf_fstorage_nvmc.o(i.uninit)
    i.uninit                                 0x0003d5c4   Section        0  nrf_fstorage_sd.o(i.uninit)
    uninit                                   0x0003d5c5   Thumb Code    22  nrf_fstorage_sd.o(i.uninit)
    i.update_data_size_get                   0x0003d5e4   Section        0  nrf_dfu_validation.o(i.update_data_size_get)
    update_data_size_get                     0x0003d5e5   Thumb Code    84  nrf_dfu_validation.o(i.update_data_size_get)
    i.verify_context                         0x0003d63c   Section        0  nrf_crypto_hash.o(i.verify_context)
    verify_context                           0x0003d63d   Thumb Code    26  nrf_crypto_hash.o(i.verify_context)
    i.wdt_feed                               0x0003d65c   Section        0  nrf_bootloader_wdt.o(i.wdt_feed)
    wdt_feed                                 0x0003d65d   Thumb Code    48  nrf_bootloader_wdt.o(i.wdt_feed)
    i.wdt_feed_timer_handler                 0x0003d698   Section        0  nrf_bootloader_wdt.o(i.wdt_feed_timer_handler)
    wdt_feed_timer_handler                   0x0003d699   Thumb Code     4  nrf_bootloader_wdt.o(i.wdt_feed_timer_handler)
    i.wmap                                   0x0003d69c   Section        0  nrf_fstorage_nvmc.o(i.wmap)
    wmap                                     0x0003d69d   Thumb Code     4  nrf_fstorage_nvmc.o(i.wmap)
    i.wmap                                   0x0003d6a0   Section        0  nrf_fstorage_sd.o(i.wmap)
    wmap                                     0x0003d6a1   Thumb Code     4  nrf_fstorage_sd.o(i.wmap)
    i.write                                  0x0003d6a4   Section        0  nrf_fstorage_nvmc.o(i.write)
    write                                    0x0003d6a5   Thumb Code    64  nrf_fstorage_nvmc.o(i.write)
    i.write                                  0x0003d6e8   Section        0  nrf_fstorage_sd.o(i.write)
    write                                    0x0003d6e9   Thumb Code    74  nrf_fstorage_sd.o(i.write)
    .constdata                               0x0003d738   Section       64  dfu_public_key.o(.constdata)
    .constdata                               0x0003d778   Section        8  boards.o(.constdata)
    m_board_led_list                         0x0003d778   Data           4  boards.o(.constdata)
    m_board_btn_list                         0x0003d77c   Data           4  boards.o(.constdata)
    .constdata                               0x0003d780   Section        6  nrf_bootloader_dfu_timers.o(.constdata)
    delay_machine_code                       0x0003d780   Data           6  nrf_bootloader_dfu_timers.o(.constdata)
    .constdata                               0x0003d788   Section       24  nrf_sw_backend_hash.o(.constdata)
    .constdata                               0x0003d7a0   Section       12  micro_ecc_backend_ecc.o(.constdata)
    .constdata                               0x0003d7ac   Section        1  dfu-cc.pb.o(.constdata)
    .constdata                               0x0003d7b0   Section       48  dfu-cc.pb.o(.constdata)
    .constdata                               0x0003d7e0   Section       48  dfu-cc.pb.o(.constdata)
    .constdata                               0x0003d810   Section      176  dfu-cc.pb.o(.constdata)
    .constdata                               0x0003d8c0   Section       48  dfu-cc.pb.o(.constdata)
    .constdata                               0x0003d8f0   Section       64  dfu-cc.pb.o(.constdata)
    .constdata                               0x0003d930   Section       48  dfu-cc.pb.o(.constdata)
    .constdata                               0x0003d960   Section      280  nrf_dfu_ble.o(.constdata)
    delay_machine_code                       0x0003d970   Data           6  nrf_dfu_ble.o(.constdata)
    m_gap_conn_params                        0x0003d976   Data           8  nrf_dfu_ble.o(.constdata)
    .constdata                               0x0003da78   Section       16  nrf_dfu_mbr.o(.constdata)
    .constdata                               0x0003da88   Section       48  nrf_dfu_req_handler.o(.constdata)
    .constdata                               0x0003dab8   Section       12  nrf_fstorage_nvmc.o(.constdata)
    m_flash_info                             0x0003dab8   Data          12  nrf_fstorage_nvmc.o(.constdata)
    .constdata                               0x0003dac4   Section       32  nrf_fstorage_nvmc.o(.constdata)
    .constdata                               0x0003dae4   Section       16  nrf_fstorage_sd.o(.constdata)
    m_fifo                                   0x0003dae4   Data           4  nrf_fstorage_sd.o(.constdata)
    m_flash_info                             0x0003dae8   Data          12  nrf_fstorage_sd.o(.constdata)
    .constdata                               0x0003daf4   Section       32  nrf_fstorage_sd.o(.constdata)
    .constdata                               0x0003db14   Section      256  sha256.o(.constdata)
    k                                        0x0003db14   Data         256  sha256.o(.constdata)
    .constdata                               0x0003dc14   Section       16  nrf_sdh.o(.constdata)
    sdh_req_observers_array                  0x0003dc14   Data          16  nrf_sdh.o(.constdata)
    .constdata                               0x0003dc24   Section       40  nrf_sdh.o(.constdata)
    sdh_req_observers                        0x0003dc28   Data          12  nrf_sdh.o(.constdata)
    sdh_state_observers                      0x0003dc34   Data          12  nrf_sdh.o(.constdata)
    sdh_stack_observers                      0x0003dc40   Data          12  nrf_sdh.o(.constdata)
    .constdata                               0x0003dc4c   Section       16  nrf_sdh.o(.constdata)
    sdh_state_observers_array                0x0003dc4c   Data          16  nrf_sdh.o(.constdata)
    .constdata                               0x0003dc5c   Section       16  nrf_sdh.o(.constdata)
    sdh_stack_observers_array                0x0003dc5c   Data          16  nrf_sdh.o(.constdata)
    .constdata                               0x0003dc6c   Section       32  nrf_sdh_ble.o(.constdata)
    sdh_ble_observers_array                  0x0003dc6c   Data          32  nrf_sdh_ble.o(.constdata)
    .constdata                               0x0003dc8c   Section       16  nrf_sdh_ble.o(.constdata)
    sdh_ble_observers                        0x0003dc90   Data          12  nrf_sdh_ble.o(.constdata)
    .constdata                               0x0003dc9c   Section       16  nrf_sdh_soc.o(.constdata)
    sdh_soc_observers_array                  0x0003dc9c   Data          16  nrf_sdh_soc.o(.constdata)
    .constdata                               0x0003dcac   Section       12  nrf_sdh_soc.o(.constdata)
    sdh_soc_observers                        0x0003dcac   Data          12  nrf_sdh_soc.o(.constdata)
    .constdata                               0x0003dcb8   Section       36  pb_decode.o(.constdata)
    PB_DECODERS                              0x0003dcb8   Data          36  pb_decode.o(.constdata)
    [Anonymous Symbol]                       0x0003dcdc   Section        0  uECC.c.o(.rodata.curve_secp256r1)
    curve_secp256r1                          0x0003dcdc   Data         176  uECC.c.o(.rodata.curve_secp256r1)
    dfu_trans                                0x0003ddac   Section        8  nrf_dfu_ble.o(dfu_trans)
    __tagsym$$used                           0x0003ddac   Number         0  nrf_dfu_ble.o(dfu_trans)
    nrf_balloc                               0x0003ddb4   Section       20  nrf_dfu_ble.o(nrf_balloc)
    __tagsym$$used                           0x0003ddb4   Number         0  nrf_dfu_ble.o(nrf_balloc)
    sdh_ble_observers2                       0x0003ddc8   Section        8  nrf_dfu_ble.o(sdh_ble_observers2)
    __tagsym$$used                           0x0003ddc8   Number         0  nrf_dfu_ble.o(sdh_ble_observers2)
    m_ble_evt_observer                       0x0003ddc8   Data           8  nrf_dfu_ble.o(sdh_ble_observers2)
    sdh_req_observers0                       0x0003ddd0   Section        8  nrf_fstorage_sd.o(sdh_req_observers0)
    __tagsym$$used                           0x0003ddd0   Number         0  nrf_fstorage_sd.o(sdh_req_observers0)
    sdh_soc_observers0                       0x0003ddd8   Section        8  nrf_fstorage_sd.o(sdh_soc_observers0)
    __tagsym$$used                           0x0003ddd8   Number         0  nrf_fstorage_sd.o(sdh_soc_observers0)
    m_sys_obs                                0x0003ddd8   Data           8  nrf_fstorage_sd.o(sdh_soc_observers0)
    sdh_stack_observers0                     0x0003dde0   Section        8  nrf_sdh_ble.o(sdh_stack_observers0)
    __tagsym$$used                           0x0003dde0   Number         0  nrf_sdh_ble.o(sdh_stack_observers0)
    m_nrf_sdh_ble_evts_poll                  0x0003dde0   Data           8  nrf_sdh_ble.o(sdh_stack_observers0)
    sdh_stack_observers0                     0x0003dde8   Section        8  nrf_sdh_soc.o(sdh_stack_observers0)
    __tagsym$$used                           0x0003dde8   Number         0  nrf_sdh_soc.o(sdh_stack_observers0)
    m_nrf_sdh_soc_evts_poll                  0x0003dde8   Data           8  nrf_sdh_soc.o(sdh_stack_observers0)
    sdh_state_observers0                     0x0003ddf0   Section        8  nrf_fstorage_sd.o(sdh_state_observers0)
    __tagsym$$used                           0x0003ddf0   Number         0  nrf_fstorage_sd.o(sdh_state_observers0)
    m_state_obs                              0x0003ddf0   Data           8  nrf_fstorage_sd.o(sdh_state_observers0)
    svc_data                                 0x0003ddf8   Section       12  nrf_dfu_svci_handler.o(svc_data)
    __tagsym$$used                           0x0003ddf8   Number         0  nrf_dfu_svci_handler.o(svc_data)
    .ARM.__AT_0x0003E000                     0x0003e000   Section     4096  nrf_dfu_settings.o(.ARM.__AT_0x0003E000)
    __tagsym$$used                           0x0003e000   Number         0  nrf_dfu_settings.o(.ARM.__AT_0x0003E000)
    .ARM.__AT_0x0003F000                     0x0003f000   Section     4096  nrf_dfu_settings.o(.ARM.__AT_0x0003F000)
    __tagsym$$used                           0x0003f000   Number         0  nrf_dfu_settings.o(.ARM.__AT_0x0003F000)
    .ARM.__AT_0x10001014                     0x10001014   Section        4  nrf_bootloader_info.o(.ARM.__AT_0x10001014)
    .ARM.__AT_0x10001018                     0x10001018   Section        4  nrf_dfu_settings.o(.ARM.__AT_0x10001018)
    .data                                    0x20002ae8   Section        8  nrf_bootloader.o(.data)
    m_flash_write_done                       0x20002ae8   Data           1  nrf_bootloader.o(.data)
    m_user_observer                          0x20002aec   Data           4  nrf_bootloader.o(.data)
    .data                                    0x20002af0   Section        4  nrf_bootloader_app_start_final.o(.data)
    acl_instance                             0x20002af0   Data           4  nrf_bootloader_app_start_final.o(.data)
    .data                                    0x20002af4   Section       48  nrf_bootloader_dfu_timers.o(.data)
    m_timer_initialized                      0x20002af4   Data           1  nrf_bootloader_dfu_timers.o(.data)
    .data                                    0x20002b24   Section        1  nrf_bootloader_fw_activation.o(.data)
    m_flash_write_done                       0x20002b24   Data           1  nrf_bootloader_fw_activation.o(.data)
    .data                                    0x20002b25   Section        1  nrf_bootloader_wdt.o(.data)
    initialized                              0x20002b25   Data           1  nrf_bootloader_wdt.o(.data)
    .data                                    0x20002b26   Section        1  nrf_crypto_init.o(.data)
    m_state                                  0x20002b26   Data           1  nrf_crypto_init.o(.data)
    .data                                    0x20002b28   Section        4  nrf_dfu.o(.data)
    m_user_observer                          0x20002b28   Data           4  nrf_dfu.o(.data)
    .data                                    0x20002b2c   Section       16  nrf_dfu_ble.o(.data)
    m_adv_handle                             0x20002b2c   Data           1  nrf_dfu_ble.o(.data)
    m_conn_handle                            0x20002b2e   Data           2  nrf_dfu_ble.o(.data)
    m_pkt_notif_target                       0x20002b30   Data           2  nrf_dfu_ble.o(.data)
    m_pkt_notif_target_cnt                   0x20002b32   Data           2  nrf_dfu_ble.o(.data)
    m_flags                                  0x20002b34   Data           4  nrf_dfu_ble.o(.data)
    m_observer                               0x20002b38   Data           4  nrf_dfu_ble.o(.data)
    .data                                    0x20002b3c   Section        8  nrf_dfu_ble.o(.data)
    m_buffer_pool_nrf_balloc_cb              0x20002b3c   Data           8  nrf_dfu_ble.o(.data)
    .data                                    0x20002b44   Section        1  nrf_dfu_handling_error.o(.data)
    m_last_error                             0x20002b44   Data           1  nrf_dfu_handling_error.o(.data)
    .data                                    0x20002b48   Section       16  nrf_dfu_req_handler.o(.data)
    current_object                           0x20002b48   Data           1  nrf_dfu_req_handler.o(.data)
    m_firmware_start_addr                    0x20002b4c   Data           4  nrf_dfu_req_handler.o(.data)
    m_firmware_size_req                      0x20002b50   Data           4  nrf_dfu_req_handler.o(.data)
    m_observer                               0x20002b54   Data           4  nrf_dfu_req_handler.o(.data)
    .data                                    0x20002b58   Section        4  nrf_dfu_settings.o(.data)
    .data                                    0x20002b5c   Section       16  nrf_dfu_validation.o(.data)
    m_valid_init_cmd_present                 0x20002b5c   Data           1  nrf_dfu_validation.o(.data)
    m_crypto_initialized                     0x20002b5d   Data           1  nrf_dfu_validation.o(.data)
    m_init_packet_valid                      0x20002b5e   Data           1  nrf_dfu_validation.o(.data)
    m_init_packet_data_ptr                   0x20002b60   Data           4  nrf_dfu_validation.o(.data)
    m_init_packet_data_len                   0x20002b64   Data           4  nrf_dfu_validation.o(.data)
    mp_init                                  0x20002b68   Data           4  nrf_dfu_validation.o(.data)
    .data                                    0x20002b6c   Section       16  app_scheduler.o(.data)
    m_queue_start_index                      0x20002b6c   Data           1  app_scheduler.o(.data)
    m_queue_end_index                        0x20002b6d   Data           1  app_scheduler.o(.data)
    m_queue_event_size                       0x20002b6e   Data           2  app_scheduler.o(.data)
    m_queue_size                             0x20002b70   Data           2  app_scheduler.o(.data)
    m_queue_event_headers                    0x20002b74   Data           4  app_scheduler.o(.data)
    m_queue_event_data                       0x20002b78   Data           4  app_scheduler.o(.data)
    .data                                    0x20002b7c   Section        4  nrf_fstorage_nvmc.o(.data)
    m_flash_operation_ongoing                0x20002b7c   Data           4  nrf_fstorage_nvmc.o(.data)
    .data                                    0x20002b80   Section        8  nrf_fstorage_sd.o(.data)
    m_p_cur_op                               0x20002b80   Data           4  nrf_fstorage_sd.o(.data)
    m_iget_ctx                               0x20002b84   Data           4  nrf_fstorage_sd.o(.data)
    .data                                    0x20002b88   Section        3  nrf_sdh.o(.data)
    m_nrf_sdh_enabled                        0x20002b88   Data           1  nrf_sdh.o(.data)
    m_nrf_sdh_suspended                      0x20002b89   Data           1  nrf_sdh.o(.data)
    m_nrf_sdh_continue                       0x20002b8a   Data           1  nrf_sdh.o(.data)
    .data                                    0x20002b8b   Section        1  nrf_sdh_ble.o(.data)
    m_stack_is_enabled                       0x20002b8b   Data           1  nrf_sdh_ble.o(.data)
    .data                                    0x20002b8c   Section        4  system_nrf52820.o(.data)
    __tagsym$$used                           0x20002b8c   Number         0  system_nrf52820.o(.data)
    fs_data                                  0x20002b90   Section       20  nrf_dfu_flash.o(fs_data)
    __tagsym$$used                           0x20002b90   Number         0  nrf_dfu_flash.o(fs_data)
    .bss                                     0x20002ba4   Section     1056  nrf_bootloader.o(.bss)
    APP_SCHED_BUF                            0x20002ba4   Data        1056  nrf_bootloader.o(.bss)
    .bss                                     0x20002fc4   Section       80  nrf_dfu_ble.o(.bss)
    m_enc_advdata                            0x20002fc4   Data          31  nrf_dfu_ble.o(.bss)
    m_adv_name                               0x20002fe4   Data          28  nrf_dfu_ble.o(.bss)
    m_dfu                                    0x20003000   Data          20  nrf_dfu_ble.o(.bss)
    .bss                                     0x20003014   Section       17  nrf_dfu_ble.o(.bss)
    m_buffer_pool_nrf_balloc_pool_stack      0x20003014   Data          17  nrf_dfu_ble.o(.bss)
    .bss                                     0x20003028   Section     4148  nrf_dfu_ble.o(.bss)
    m_buffer_pool_nrf_balloc_pool_mem        0x20003028   Data        4148  nrf_dfu_ble.o(.bss)
    .bss                                     0x2000405c   Section     2688  nrf_dfu_settings.o(.bss)
    dfu_settings_buffer                      0x2000405c   Data         896  nrf_dfu_settings.o(.bss)
    dfu_settings_buffer                      0x200043dc   Data         896  nrf_dfu_settings.o(.bss)
    .bss                                     0x20004adc   Section     1012  nrf_dfu_validation.o(.bss)
    m_packet                                 0x20004adc   Data         796  nrf_dfu_validation.o(.bss)
    m_pb_stream                              0x20004df8   Data          16  nrf_dfu_validation.o(.bss)
    m_public_key                             0x20004e08   Data          72  nrf_dfu_validation.o(.bss)
    m_signature                              0x20004e50   Data          64  nrf_dfu_validation.o(.bss)
    m_sig_hash                               0x20004e90   Data          32  nrf_dfu_validation.o(.bss)
    m_fw_hash                                0x20004eb0   Data          32  nrf_dfu_validation.o(.bss)
    .bss                                     0x20004ed0   Section       12  app_util_platform.o(.bss)
    .bss                                     0x20004edc   Section       16  nrf_fstorage_sd.o(.bss)
    m_fifo_inst                              0x20004edc   Data          16  nrf_fstorage_sd.o(.bss)
    .bss                                     0x20004eec   Section      496  nrf_fstorage_sd.o(.bss)
    m_fifo_data                              0x20004eec   Data         476  nrf_fstorage_sd.o(.bss)
    m_flags                                  0x200050c8   Data          20  nrf_fstorage_sd.o(.bss)
    STACK                                    0x200050e0   Section     2048  arm_startup_nrf52820.o(STACK)

    Global Symbols

    Symbol Name                              Value     Ov Type        Size  Object(Section)

    BuildAttributes$$THM_ISAv4$E$P$D$K$B$S$7EM$PE$A:L22UL41UL21$X:L11$S22US41US21$IEEE1$IW$USESV6$~STKCKD$USESV7$~SHL$OSPACE$IEEEX$EBA8$MICROLIB$REQ8$EABIv2 0x00000000   Number         0  anon$$obj.o ABSOLUTE
    __ARM_use_no_argv                        0x00000000   Number         0  main.o ABSOLUTE
    __cpp_initialize__aeabi_                  - Undefined Weak Reference
    __cxa_finalize                            - Undefined Weak Reference
    __decompress                              - Undefined Weak Reference
    _clock_init                               - Undefined Weak Reference
    _microlib_exit                            - Undefined Weak Reference
    crypto_data$$Base                         - Undefined Reference
    crypto_data$$Limit                        - Undefined Reference
    sdh_ble_observers0$$Base                  - Undefined Reference
    sdh_ble_observers0$$Limit                 - Undefined Reference
    sdh_ble_observers1$$Base                  - Undefined Reference
    sdh_ble_observers1$$Limit                 - Undefined Reference
    sdh_ble_observers3$$Base                  - Undefined Reference
    sdh_ble_observers3$$Limit                 - Undefined Reference
    sdh_req_observers1$$Base                  - Undefined Reference
    sdh_req_observers1$$Limit                 - Undefined Reference
    sdh_soc_observers1$$Base                  - Undefined Reference
    sdh_soc_observers1$$Limit                 - Undefined Reference
    sdh_stack_observers1$$Base                - Undefined Reference
    sdh_stack_observers1$$Limit               - Undefined Reference
    sdh_state_observers1$$Base                - Undefined Reference
    sdh_state_observers1$$Limit               - Undefined Reference
    __Vectors_Size                           0x00000200   Number         0  arm_startup_nrf52820.o ABSOLUTE
    Load$$LR$$LR_IROM1$$Base                 0x00038000   Number         0  anon$$obj.o ABSOLUTE
    __Vectors                                0x00038000   Data           4  arm_startup_nrf52820.o(RESET)
    __Vectors_End                            0x00038200   Data           0  arm_startup_nrf52820.o(RESET)
    __main                                   0x00038201   Thumb Code     0  entry.o(.ARM.Collect$$$$00000000)
    _main_stk                                0x00038201   Thumb Code     0  entry2.o(.ARM.Collect$$$$00000001)
    _main_scatterload                        0x00038205   Thumb Code     0  entry5.o(.ARM.Collect$$$$00000004)
    __main_after_scatterload                 0x00038209   Thumb Code     0  entry5.o(.ARM.Collect$$$$00000004)
    _main_clock                              0x00038209   Thumb Code     0  entry7b.o(.ARM.Collect$$$$00000008)
    _main_cpp_init                           0x00038209   Thumb Code     0  entry8b.o(.ARM.Collect$$$$0000000A)
    _main_init                               0x00038209   Thumb Code     0  entry9a.o(.ARM.Collect$$$$0000000B)
    __rt_final_cpp                           0x00038211   Thumb Code     0  entry10a.o(.ARM.Collect$$$$0000000D)
    __rt_final_exit                          0x00038211   Thumb Code     0  entry11a.o(.ARM.Collect$$$$0000000F)
    __asm___12_nrf_atfifo_c_51f461e1__nrf_atfifo_wspace_req 0x00038215   Thumb Code    56  nrf_atfifo.o(.emb_text)
    __asm___12_nrf_atfifo_c_51f461e1__nrf_atfifo_wspace_close 0x0003824d   Thumb Code    18  nrf_atfifo.o(.emb_text)
    __asm___12_nrf_atfifo_c_51f461e1__nrf_atfifo_rspace_req 0x0003825f   Thumb Code    58  nrf_atfifo.o(.emb_text)
    __asm___12_nrf_atfifo_c_51f461e1__nrf_atfifo_rspace_close 0x00038299   Thumb Code    18  nrf_atfifo.o(.emb_text)
    __asm___12_nrf_atfifo_c_51f461e1__nrf_atfifo_space_clear 0x000382ab   Thumb Code    50  nrf_atfifo.o(.emb_text)
    __asm___12_nrf_atomic_c_85ca2469__nrf_atomic_internal_mov 0x000382dd   Thumb Code    24  nrf_atomic.o(.emb_text)
    __asm___12_nrf_atomic_c_85ca2469__nrf_atomic_internal_orr 0x000382f5   Thumb Code    26  nrf_atomic.o(.emb_text)
    __asm___12_nrf_atomic_c_85ca2469__nrf_atomic_internal_and 0x0003830f   Thumb Code    26  nrf_atomic.o(.emb_text)
    __asm___12_nrf_atomic_c_85ca2469__nrf_atomic_internal_eor 0x00038329   Thumb Code    26  nrf_atomic.o(.emb_text)
    __asm___12_nrf_atomic_c_85ca2469__nrf_atomic_internal_add 0x00038343   Thumb Code    26  nrf_atomic.o(.emb_text)
    __asm___12_nrf_atomic_c_85ca2469__nrf_atomic_internal_sub 0x0003835d   Thumb Code    26  nrf_atomic.o(.emb_text)
    __asm___12_nrf_atomic_c_85ca2469__nrf_atomic_internal_cmp_exch 0x00038377   Thumb Code    42  nrf_atomic.o(.emb_text)
    __asm___12_nrf_atomic_c_85ca2469__nrf_atomic_internal_sub_hs 0x000383a1   Thumb Code    30  nrf_atomic.o(.emb_text)
    SVC_Handler                              0x000383c1   Thumb Code    20  nrf_svc_handler.o(.emb_text)
    Reset_Handler                            0x000383d5   Thumb Code     8  arm_startup_nrf52820.o(.text)
    NMI_Handler                              0x000383dd   Thumb Code     2  arm_startup_nrf52820.o(.text)
    HardFault_Handler                        0x000383df   Thumb Code     2  arm_startup_nrf52820.o(.text)
    MemoryManagement_Handler                 0x000383e1   Thumb Code     2  arm_startup_nrf52820.o(.text)
    BusFault_Handler                         0x000383e3   Thumb Code     2  arm_startup_nrf52820.o(.text)
    UsageFault_Handler                       0x000383e5   Thumb Code     2  arm_startup_nrf52820.o(.text)
    DebugMon_Handler                         0x000383e9   Thumb Code     2  arm_startup_nrf52820.o(.text)
    PendSV_Handler                           0x000383eb   Thumb Code     2  arm_startup_nrf52820.o(.text)
    SysTick_Handler                          0x000383ed   Thumb Code     2  arm_startup_nrf52820.o(.text)
    CCM_AAR_IRQHandler                       0x000383ef   Thumb Code     0  arm_startup_nrf52820.o(.text)
    COMP_IRQHandler                          0x000383ef   Thumb Code     0  arm_startup_nrf52820.o(.text)
    ECB_IRQHandler                           0x000383ef   Thumb Code     0  arm_startup_nrf52820.o(.text)
    GPIOTE_IRQHandler                        0x000383ef   Thumb Code     0  arm_startup_nrf52820.o(.text)
    POWER_CLOCK_IRQHandler                   0x000383ef   Thumb Code     0  arm_startup_nrf52820.o(.text)
    QDEC_IRQHandler                          0x000383ef   Thumb Code     0  arm_startup_nrf52820.o(.text)
    RADIO_IRQHandler                         0x000383ef   Thumb Code     0  arm_startup_nrf52820.o(.text)
    RNG_IRQHandler                           0x000383ef   Thumb Code     0  arm_startup_nrf52820.o(.text)
    RTC0_IRQHandler                          0x000383ef   Thumb Code     0  arm_startup_nrf52820.o(.text)
    SPIM0_SPIS0_TWIM0_TWIS0_SPI0_TWI0_IRQHandler 0x000383ef   Thumb Code     0  arm_startup_nrf52820.o(.text)
    SPIM1_SPIS1_TWIM1_TWIS1_SPI1_TWI1_IRQHandler 0x000383ef   Thumb Code     0  arm_startup_nrf52820.o(.text)
    SWI0_EGU0_IRQHandler                     0x000383ef   Thumb Code     0  arm_startup_nrf52820.o(.text)
    SWI1_EGU1_IRQHandler                     0x000383ef   Thumb Code     0  arm_startup_nrf52820.o(.text)
    SWI3_EGU3_IRQHandler                     0x000383ef   Thumb Code     0  arm_startup_nrf52820.o(.text)
    SWI4_EGU4_IRQHandler                     0x000383ef   Thumb Code     0  arm_startup_nrf52820.o(.text)
    SWI5_EGU5_IRQHandler                     0x000383ef   Thumb Code     0  arm_startup_nrf52820.o(.text)
    TEMP_IRQHandler                          0x000383ef   Thumb Code     0  arm_startup_nrf52820.o(.text)
    TIMER0_IRQHandler                        0x000383ef   Thumb Code     0  arm_startup_nrf52820.o(.text)
    TIMER1_IRQHandler                        0x000383ef   Thumb Code     0  arm_startup_nrf52820.o(.text)
    TIMER2_IRQHandler                        0x000383ef   Thumb Code     0  arm_startup_nrf52820.o(.text)
    TIMER3_IRQHandler                        0x000383ef   Thumb Code     0  arm_startup_nrf52820.o(.text)
    UARTE0_UART0_IRQHandler                  0x000383ef   Thumb Code     0  arm_startup_nrf52820.o(.text)
    USBD_IRQHandler                          0x000383ef   Thumb Code     0  arm_startup_nrf52820.o(.text)
    __aeabi_llsl                             0x000383f9   Thumb Code    30  llshl.o(.text)
    _ll_shift_l                              0x000383f9   Thumb Code     0  llshl.o(.text)
    __aeabi_memcpy                           0x00038417   Thumb Code    36  memcpya.o(.text)
    __aeabi_memcpy4                          0x00038417   Thumb Code     0  memcpya.o(.text)
    __aeabi_memcpy8                          0x00038417   Thumb Code     0  memcpya.o(.text)
    __aeabi_memset                           0x0003843b   Thumb Code    14  memseta.o(.text)
    __aeabi_memset4                          0x0003843b   Thumb Code     0  memseta.o(.text)
    __aeabi_memset8                          0x0003843b   Thumb Code     0  memseta.o(.text)
    __aeabi_memclr                           0x00038449   Thumb Code     4  memseta.o(.text)
    __aeabi_memclr4                          0x00038449   Thumb Code     0  memseta.o(.text)
    __aeabi_memclr8                          0x00038449   Thumb Code     0  memseta.o(.text)
    memset                                   0x0003844d   Thumb Code    18  memseta.o(.text)
    memcmp                                   0x0003845f   Thumb Code    26  memcmp.o(.text)
    __scatterload                            0x00038479   Thumb Code    28  init.o(.text)
    __scatterload_rt2                        0x00038479   Thumb Code     0  init.o(.text)
    uECC_secp256r1                           0x0003878d   Thumb Code     8  uECC.c.o(.text.uECC_secp256r1)
    uECC_verify                              0x00038795   Thumb Code   724  uECC.c.o(.text.uECC_verify)
    uECC_vli_add                             0x00038a71   Thumb Code    88  uECC.c.o(.text.uECC_vli_add)
    uECC_vli_clear                           0x00038ac9   Thumb Code    24  uECC.c.o(.text.uECC_vli_clear)
    uECC_vli_equal                           0x00038b0b   Thumb Code    42  uECC.c.o(.text.uECC_vli_equal)
    uECC_vli_isZero                          0x00038b35   Thumb Code    30  uECC.c.o(.text.uECC_vli_isZero)
    uECC_vli_mmod                            0x00038b55   Thumb Code   316  uECC.c.o(.text.uECC_vli_mmod)
    uECC_vli_modAdd                          0x00038c91   Thumb Code    50  uECC.c.o(.text.uECC_vli_modAdd)
    uECC_vli_modInv                          0x00038cc3   Thumb Code   268  uECC.c.o(.text.uECC_vli_modInv)
    uECC_vli_modMult                         0x00038dcf   Thumb Code    36  uECC.c.o(.text.uECC_vli_modMult)
    uECC_vli_modMult_fast                    0x00038df3   Thumb Code    32  uECC.c.o(.text.uECC_vli_modMult_fast)
    uECC_vli_modSquare_fast                  0x00038e13   Thumb Code    32  uECC.c.o(.text.uECC_vli_modSquare_fast)
    uECC_vli_modSub                          0x00038e33   Thumb Code    36  uECC.c.o(.text.uECC_vli_modSub)
    uECC_vli_mult                            0x00038e57   Thumb Code   786  uECC.c.o(.text.uECC_vli_mult)
    uECC_vli_numBits                         0x00039169   Thumb Code    68  uECC.c.o(.text.uECC_vli_numBits)
    uECC_vli_rshift1                         0x000391ad   Thumb Code    26  uECC.c.o(.text.uECC_vli_rshift1)
    uECC_vli_set                             0x000391c7   Thumb Code    26  uECC.c.o(.text.uECC_vli_set)
    uECC_vli_square                          0x000391e1   Thumb Code   652  uECC.c.o(.text.uECC_vli_square)
    uECC_vli_sub                             0x00039471   Thumb Code    94  uECC.c.o(.text.uECC_vli_sub)
    uECC_vli_testBit                         0x000394d1   Thumb Code    18  uECC.c.o(.text.uECC_vli_testBit)
    RTC1_IRQHandler                          0x00039729   Thumb Code   106  nrf_bootloader_dfu_timers.o(i.RTC1_IRQHandler)
    SWI2_EGU2_IRQHandler                     0x0003979d   Thumb Code     4  nrf_sdh.o(i.SWI2_EGU2_IRQHandler)
    SystemInit                               0x000397a1   Thumb Code   322  system_nrf52820.o(i.SystemInit)
    WDT_IRQHandler                           0x0003990d   Thumb Code    14  nrf_bootloader_wdt.o(i.WDT_IRQHandler)
    __scatterload_copy                       0x00039921   Thumb Code    14  handlers.o(i.__scatterload_copy)
    __scatterload_null                       0x0003992f   Thumb Code     2  handlers.o(i.__scatterload_null)
    __scatterload_zeroinit                   0x00039931   Thumb Code    14  handlers.o(i.__scatterload_zeroinit)
    app_error_fault_handler                  0x00039a71   Thumb Code     4  main.o(i.app_error_fault_handler)
    app_error_handler_bare                   0x00039a75   Thumb Code     4  main.o(i.app_error_handler_bare)
    app_sched_event_put                      0x00039a79   Thumb Code   154  app_scheduler.o(i.app_sched_event_put)
    app_sched_execute                        0x00039b19   Thumb Code    58  app_scheduler.o(i.app_sched_execute)
    app_sched_init                           0x00039b59   Thumb Code    40  app_scheduler.o(i.app_sched_init)
    app_util_critical_region_enter           0x00039b85   Thumb Code    64  app_util_platform.o(i.app_util_critical_region_enter)
    app_util_critical_region_exit            0x00039bcd   Thumb Code    46  app_util_platform.o(i.app_util_critical_region_exit)
    ble_dfu_init                             0x00039c4d   Thumb Code   182  nrf_dfu_ble.o(i.ble_dfu_init)
    ble_dfu_transport_close                  0x00039dc9   Thumb Code    82  nrf_dfu_ble.o(i.ble_dfu_transport_close)
    ble_dfu_transport_init                   0x00039e29   Thumb Code   134  nrf_dfu_ble.o(i.ble_dfu_transport_init)
    ble_srv_is_notification_enabled          0x0003a099   Thumb Code     8  ble_srv_common.o(i.ble_srv_is_notification_enabled)
    bsp_board_init                           0x0003a179   Thumb Code    80  boards.o(i.bsp_board_init)
    bsp_board_led_off                        0x0003a1cd   Thumb Code    10  boards.o(i.bsp_board_led_off)
    bsp_board_led_on                         0x0003a1dd   Thumb Code    10  boards.o(i.bsp_board_led_on)
    bsp_board_leds_off                       0x0003a1ed   Thumb Code    18  boards.o(i.bsp_board_leds_off)
    crc32_compute                            0x0003a22d   Thumb Code    54  crc32.o(i.crc32_compute)
    dfu_fstorage_evt_handler                 0x0003a4dd   Thumb Code    12  nrf_dfu_flash.o(i.dfu_fstorage_evt_handler)
    ext_error_get                            0x0003a6e9   Thumb Code    10  nrf_dfu_handling_error.o(i.ext_error_get)
    ext_error_set                            0x0003a6f9   Thumb Code     8  nrf_dfu_handling_error.o(i.ext_error_set)
    fw_hash_ok                               0x0003a71d   Thumb Code     8  nrf_dfu_validation.o(i.fw_hash_ok)
    main                                     0x0003a919   Thumb Code    38  main.o(i.main)
    nrf_atfifo_clear                         0x0003a949   Thumb Code    16  nrf_atfifo.o(i.nrf_atfifo_clear)
    nrf_atfifo_init                          0x0003a959   Thumb Code    38  nrf_atfifo.o(i.nrf_atfifo_init)
    nrf_atfifo_item_alloc                    0x0003a97f   Thumb Code    22  nrf_atfifo.o(i.nrf_atfifo_item_alloc)
    nrf_atfifo_item_free                     0x0003a995   Thumb Code    22  nrf_atfifo.o(i.nrf_atfifo_item_free)
    nrf_atfifo_item_get                      0x0003a9ab   Thumb Code    22  nrf_atfifo.o(i.nrf_atfifo_item_get)
    nrf_atfifo_item_put                      0x0003a9c1   Thumb Code    22  nrf_atfifo.o(i.nrf_atfifo_item_put)
    nrf_atomic_flag_clear                    0x0003a9d7   Thumb Code     6  nrf_atomic.o(i.nrf_atomic_flag_clear)
    nrf_atomic_flag_set_fetch                0x0003a9dd   Thumb Code     6  nrf_atomic.o(i.nrf_atomic_flag_set_fetch)
    nrf_atomic_u32_and                       0x0003a9e3   Thumb Code    12  nrf_atomic.o(i.nrf_atomic_u32_and)
    nrf_atomic_u32_fetch_or                  0x0003a9ef   Thumb Code    10  nrf_atomic.o(i.nrf_atomic_u32_fetch_or)
    nrf_balloc_alloc                         0x0003a9f9   Thumb Code    68  nrf_balloc.o(i.nrf_balloc_alloc)
    nrf_balloc_free                          0x0003aa3d   Thumb Code    48  nrf_balloc.o(i.nrf_balloc_free)
    nrf_balloc_init                          0x0003aa6d   Thumb Code    48  nrf_balloc.o(i.nrf_balloc_init)
    nrf_bootloader_app_start                 0x0003aa9d   Thumb Code    36  nrf_bootloader_app_start.o(i.nrf_bootloader_app_start)
    nrf_bootloader_app_start_final           0x0003aac1   Thumb Code    88  nrf_bootloader_app_start_final.o(i.nrf_bootloader_app_start_final)
    nrf_bootloader_dfu_inactivity_timer_restart 0x0003ab21   Thumb Code    34  nrf_bootloader_dfu_timers.o(i.nrf_bootloader_dfu_inactivity_timer_restart)
    nrf_bootloader_flash_protect             0x0003ab49   Thumb Code    56  nrf_bootloader_app_start_final.o(i.nrf_bootloader_flash_protect)
    nrf_bootloader_fw_activate               0x0003ab89   Thumb Code   102  nrf_bootloader_fw_activation.o(i.nrf_bootloader_fw_activate)
    nrf_bootloader_init                      0x0003abfd   Thumb Code   266  nrf_bootloader.o(i.nrf_bootloader_init)
    nrf_bootloader_mbr_addrs_populate        0x0003ad29   Thumb Code    42  nrf_bootloader_info.o(i.nrf_bootloader_mbr_addrs_populate)
    nrf_bootloader_wdt_feed                  0x0003ad59   Thumb Code    20  nrf_bootloader_wdt.o(i.nrf_bootloader_wdt_feed)
    nrf_bootloader_wdt_feed_timer_start      0x0003ad6d   Thumb Code    16  nrf_bootloader_dfu_timers.o(i.nrf_bootloader_wdt_feed_timer_start)
    nrf_bootloader_wdt_init                  0x0003ad81   Thumb Code    60  nrf_bootloader_wdt.o(i.nrf_bootloader_wdt_init)
    nrf_crypto_backend_micro_ecc_curve_get   0x0003adc9   Thumb Code     6  micro_ecc_backend_ecc.o(i.nrf_crypto_backend_micro_ecc_curve_get)
    nrf_crypto_backend_micro_ecc_public_key_from_raw 0x0003adcf   Thumb Code    16  micro_ecc_backend_ecc.o(i.nrf_crypto_backend_micro_ecc_public_key_from_raw)
    nrf_crypto_backend_micro_ecc_verify      0x0003addf   Thumb Code    86  micro_ecc_backend_ecdsa.o(i.nrf_crypto_backend_micro_ecc_verify)
    nrf_crypto_ecc_public_key_from_raw       0x0003ae35   Thumb Code    48  nrf_crypto_ecc.o(i.nrf_crypto_ecc_public_key_from_raw)
    nrf_crypto_ecdsa_verify                  0x0003ae69   Thumb Code    72  nrf_crypto_ecdsa.o(i.nrf_crypto_ecdsa_verify)
    nrf_crypto_hash_calculate                0x0003aeb5   Thumb Code    54  nrf_crypto_hash.o(i.nrf_crypto_hash_calculate)
    nrf_crypto_hash_finalize                 0x0003aeeb   Thumb Code    54  nrf_crypto_hash.o(i.nrf_crypto_hash_finalize)
    nrf_crypto_hash_init                     0x0003af21   Thumb Code    38  nrf_crypto_hash.o(i.nrf_crypto_hash_init)
    nrf_crypto_hash_update                   0x0003af4d   Thumb Code    46  nrf_crypto_hash.o(i.nrf_crypto_hash_update)
    nrf_crypto_init                          0x0003af7d   Thumb Code    50  nrf_crypto_init.o(i.nrf_crypto_init)
    nrf_crypto_internal_double_swap_endian   0x0003afbd   Thumb Code    26  nrf_crypto_shared.o(i.nrf_crypto_internal_double_swap_endian)
    nrf_crypto_internal_double_swap_endian_in_place 0x0003afd7   Thumb Code    22  nrf_crypto_shared.o(i.nrf_crypto_internal_double_swap_endian_in_place)
    nrf_crypto_internal_ecc_key_input_check  0x0003afed   Thumb Code    24  nrf_crypto_ecc.o(i.nrf_crypto_internal_ecc_key_input_check)
    nrf_crypto_internal_ecc_key_output_prepare 0x0003b005   Thumb Code    26  nrf_crypto_ecc.o(i.nrf_crypto_internal_ecc_key_output_prepare)
    nrf_crypto_internal_ecc_raw_input_check  0x0003b01f   Thumb Code    22  nrf_crypto_ecc.o(i.nrf_crypto_internal_ecc_raw_input_check)
    nrf_crypto_internal_swap_endian          0x0003b035   Thumb Code    22  nrf_crypto_shared.o(i.nrf_crypto_internal_swap_endian)
    nrf_crypto_internal_swap_endian_in_place 0x0003b04b   Thumb Code    24  nrf_crypto_shared.o(i.nrf_crypto_internal_swap_endian_in_place)
    nrf_dfu_bank0_start_addr                 0x0003b065   Thumb Code    34  nrf_dfu_utils.o(i.nrf_dfu_bank0_start_addr)
    nrf_dfu_bank1_start_addr                 0x0003b08d   Thumb Code    28  nrf_dfu_utils.o(i.nrf_dfu_bank1_start_addr)
    nrf_dfu_bank_invalidate                  0x0003b0ad   Thumb Code    14  nrf_dfu_utils.o(i.nrf_dfu_bank_invalidate)
    nrf_dfu_cache_prepare                    0x0003b0c1   Thumb Code   140  nrf_dfu_utils.o(i.nrf_dfu_cache_prepare)
    nrf_dfu_flash_erase                      0x0003b261   Thumb Code    12  nrf_dfu_flash.o(i.nrf_dfu_flash_erase)
    nrf_dfu_flash_init                       0x0003b271   Thumb Code    16  nrf_dfu_flash.o(i.nrf_dfu_flash_init)
    nrf_dfu_flash_store                      0x0003b28d   Thumb Code    18  nrf_dfu_flash.o(i.nrf_dfu_flash_store)
    nrf_dfu_init                             0x0003b2a5   Thumb Code    34  nrf_dfu.o(i.nrf_dfu_init)
    nrf_dfu_init_user                        0x0003b2d1   Thumb Code     4  nrf_bootloader.o(i.nrf_dfu_init_user)
    nrf_dfu_mbr_copy_bl                      0x0003b2d5   Thumb Code    22  nrf_dfu_mbr.o(i.nrf_dfu_mbr_copy_bl)
    nrf_dfu_mbr_init_sd                      0x0003b2ed   Thumb Code    18  nrf_dfu_mbr.o(i.nrf_dfu_mbr_init_sd)
    nrf_dfu_mbr_irq_forward_address_set      0x0003b305   Thumb Code    12  nrf_dfu_mbr.o(i.nrf_dfu_mbr_irq_forward_address_set)
    nrf_dfu_req_handler_init                 0x0003b311   Thumb Code    62  nrf_dfu_req_handler.o(i.nrf_dfu_req_handler_init)
    nrf_dfu_req_handler_on_req               0x0003b355   Thumb Code    16  nrf_dfu_req_handler.o(i.nrf_dfu_req_handler_on_req)
    nrf_dfu_settings_additional_erase        0x0003b479   Thumb Code    46  nrf_dfu_settings_svci.o(i.nrf_dfu_settings_additional_erase)
    nrf_dfu_settings_adv_name_copy           0x0003b4ad   Thumb Code    20  nrf_dfu_settings_svci.o(i.nrf_dfu_settings_adv_name_copy)
    nrf_dfu_settings_adv_name_is_valid       0x0003b4c5   Thumb Code    28  nrf_dfu_settings_svci.o(i.nrf_dfu_settings_adv_name_is_valid)
    nrf_dfu_settings_adv_name_write          0x0003b4e5   Thumb Code    50  nrf_dfu_settings_svci.o(i.nrf_dfu_settings_adv_name_write)
    nrf_dfu_settings_backup                  0x0003b51d   Thumb Code     6  nrf_dfu_settings.o(i.nrf_dfu_settings_backup)
    nrf_dfu_settings_init                    0x0003b529   Thumb Code    26  nrf_dfu_settings.o(i.nrf_dfu_settings_init)
    nrf_dfu_settings_progress_reset          0x0003b545   Thumb Code    34  nrf_dfu_settings.o(i.nrf_dfu_settings_progress_reset)
    nrf_dfu_settings_reinit                  0x0003b56d   Thumb Code   206  nrf_dfu_settings.o(i.nrf_dfu_settings_reinit)
    nrf_dfu_settings_write                   0x0003b651   Thumb Code    42  nrf_dfu_settings.o(i.nrf_dfu_settings_write)
    nrf_dfu_settings_write_and_backup        0x0003b685   Thumb Code    26  nrf_dfu_settings.o(i.nrf_dfu_settings_write_and_backup)
    nrf_dfu_softdevice_start_address         0x0003b6a5   Thumb Code     6  nrf_dfu_utils.o(i.nrf_dfu_softdevice_start_address)
    nrf_dfu_transports_close                 0x0003b6ad   Thumb Code    44  nrf_dfu_transport.o(i.nrf_dfu_transports_close)
    nrf_dfu_transports_init                  0x0003b6e1   Thumb Code    42  nrf_dfu_transport.o(i.nrf_dfu_transports_init)
    nrf_dfu_validation_activation_prepare    0x0003b715   Thumb Code     6  nrf_dfu_validation.o(i.nrf_dfu_validation_activation_prepare)
    nrf_dfu_validation_boot_validate         0x0003b71b   Thumb Code    82  nrf_dfu_validation.o(i.nrf_dfu_validation_boot_validate)
    nrf_dfu_validation_init                  0x0003b7d1   Thumb Code    26  nrf_dfu_validation.o(i.nrf_dfu_validation_init)
    nrf_dfu_validation_init_cmd_append       0x0003b7f5   Thumb Code    66  nrf_dfu_validation.o(i.nrf_dfu_validation_init_cmd_append)
    nrf_dfu_validation_init_cmd_create       0x0003b83d   Thumb Code    42  nrf_dfu_validation.o(i.nrf_dfu_validation_init_cmd_create)
    nrf_dfu_validation_init_cmd_execute      0x0003b871   Thumb Code   138  nrf_dfu_validation.o(i.nrf_dfu_validation_init_cmd_execute)
    nrf_dfu_validation_init_cmd_present      0x0003b905   Thumb Code     6  nrf_dfu_validation.o(i.nrf_dfu_validation_init_cmd_present)
    nrf_dfu_validation_prevalidate           0x0003b911   Thumb Code    62  nrf_dfu_validation.o(i.nrf_dfu_validation_prevalidate)
    nrf_dfu_ver_validation_check             0x0003b9ed   Thumb Code   122  nrf_dfu_ver_validation.o(i.nrf_dfu_ver_validation_check)
    nrf_fstorage_erase                       0x0003ba6d   Thumb Code    44  nrf_fstorage.o(i.nrf_fstorage_erase)
    nrf_fstorage_init                        0x0003ba99   Thumb Code     8  nrf_fstorage.o(i.nrf_fstorage_init)
    nrf_fstorage_is_busy                     0x0003baa1   Thumb Code    70  nrf_fstorage.o(i.nrf_fstorage_is_busy)
    nrf_fstorage_sdh_req_handler             0x0003baf1   Thumb Code    18  nrf_fstorage_sd.o(i.nrf_fstorage_sdh_req_handler)
    nrf_fstorage_sdh_state_handler           0x0003bb09   Thumb Code    28  nrf_fstorage_sd.o(i.nrf_fstorage_sdh_state_handler)
    nrf_fstorage_sys_evt_handler             0x0003bb29   Thumb Code   150  nrf_fstorage_sd.o(i.nrf_fstorage_sys_evt_handler)
    nrf_fstorage_write                       0x0003bbc9   Thumb Code    62  nrf_fstorage.o(i.nrf_fstorage_write)
    nrf_nvmc_page_erase                      0x0003bc41   Thumb Code    40  nrf_nvmc.o(i.nrf_nvmc_page_erase)
    nrf_nvmc_write_word                      0x0003bc71   Thumb Code    38  nrf_nvmc.o(i.nrf_nvmc_write_word)
    nrf_nvmc_write_words                     0x0003bca1   Thumb Code    58  nrf_nvmc.o(i.nrf_nvmc_write_words)
    nrf_sdh_ble_app_ram_start_get            0x0003bcfd   Thumb Code    16  nrf_sdh_ble.o(i.nrf_sdh_ble_app_ram_start_get)
    nrf_sdh_ble_default_cfg_set              0x0003bd11   Thumb Code   156  nrf_sdh_ble.o(i.nrf_sdh_ble_default_cfg_set)
    nrf_sdh_ble_enable                       0x0003bdad   Thumb Code    14  nrf_sdh_ble.o(i.nrf_sdh_ble_enable)
    nrf_sdh_disable_request                  0x0003be21   Thumb Code    80  nrf_sdh.o(i.nrf_sdh_disable_request)
    nrf_sdh_enable_request                   0x0003be75   Thumb Code   102  nrf_sdh.o(i.nrf_sdh_enable_request)
    nrf_sdh_evts_poll                        0x0003bee9   Thumb Code    32  nrf_sdh.o(i.nrf_sdh_evts_poll)
    nrf_sdh_is_enabled                       0x0003bf0d   Thumb Code     6  nrf_sdh.o(i.nrf_sdh_is_enabled)
    nrf_sdh_request_continue                 0x0003bf19   Thumb Code    22  nrf_sdh.o(i.nrf_sdh_request_continue)
    nrf_section_iter_init                    0x0003bf71   Thumb Code    10  nrf_section_iter.o(i.nrf_section_iter_init)
    nrf_section_iter_next                    0x0003bf9f   Thumb Code    32  nrf_section_iter.o(i.nrf_section_iter_next)
    nrf_svc_handler_c                        0x0003bfc1   Thumb Code    84  nrf_svc_handler.o(i.nrf_svc_handler_c)
    pb_decode                                0x0003c4d3   Thumb Code    30  pb_decode.o(i.pb_decode)
    pb_decode_fixed32                        0x0003c4f1   Thumb Code    32  pb_decode.o(i.pb_decode_fixed32)
    pb_decode_fixed64                        0x0003c511   Thumb Code    92  pb_decode.o(i.pb_decode_fixed64)
    pb_decode_noinit                         0x0003c56d   Thumb Code   390  pb_decode.o(i.pb_decode_noinit)
    pb_decode_svarint                        0x0003c6f3   Thumb Code    58  pb_decode.o(i.pb_decode_svarint)
    pb_decode_tag                            0x0003c72d   Thumb Code    66  pb_decode.o(i.pb_decode_tag)
    pb_decode_varint                         0x0003c76f   Thumb Code    74  pb_decode.o(i.pb_decode_varint)
    pb_field_iter_begin                      0x0003c841   Thumb Code    34  pb_common.o(i.pb_field_iter_begin)
    pb_field_iter_find                       0x0003c863   Thumb Code    46  pb_common.o(i.pb_field_iter_find)
    pb_field_iter_next                       0x0003c891   Thumb Code   126  pb_common.o(i.pb_field_iter_next)
    pb_istream_from_buffer                   0x0003c9b5   Thumb Code    14  pb_decode.o(i.pb_istream_from_buffer)
    pb_make_string_substream                 0x0003c9c9   Thumb Code    54  pb_decode.o(i.pb_make_string_substream)
    pb_read                                  0x0003ca25   Thumb Code    84  pb_decode.o(i.pb_read)
    pb_skip_field                            0x0003ca9d   Thumb Code    90  pb_decode.o(i.pb_skip_field)
    postvalidate                             0x0003caf9   Thumb Code   184  nrf_dfu_validation.o(i.postvalidate)
    settings_backup                          0x0003cfe5   Thumb Code    12  nrf_dfu_settings.o(i.settings_backup)
    sha256_final                             0x0003d053   Thumb Code   272  sha256.o(i.sha256_final)
    sha256_init                              0x0003d165   Thumb Code    50  sha256.o(i.sha256_init)
    sha256_transform                         0x0003d1b9   Thumb Code   294  sha256.o(i.sha256_transform)
    sha256_update                            0x0003d2e5   Thumb Code    84  sha256.o(i.sha256_update)
    pk                                       0x0003d738   Data          64  dfu_public_key.o(.constdata)
    g_nrf_crypto_hash_sha256_info            0x0003d788   Data          24  nrf_sw_backend_hash.o(.constdata)
    g_nrf_crypto_ecc_secp256r1_curve_info    0x0003d7a0   Data          12  micro_ecc_backend_ecc.o(.constdata)
    dfu_init_command_is_debug_default        0x0003d7ac   Data           1  dfu-cc.pb.o(.constdata)
    dfu_hash_fields                          0x0003d7b0   Data          48  dfu-cc.pb.o(.constdata)
    dfu_boot_validation_fields               0x0003d7e0   Data          48  dfu-cc.pb.o(.constdata)
    dfu_init_command_fields                  0x0003d810   Data         176  dfu-cc.pb.o(.constdata)
    dfu_command_fields                       0x0003d8c0   Data          48  dfu-cc.pb.o(.constdata)
    dfu_signed_command_fields                0x0003d8f0   Data          64  dfu-cc.pb.o(.constdata)
    dfu_packet_fields                        0x0003d930   Data          48  dfu-cc.pb.o(.constdata)
    nrf_fstorage_nvmc                        0x0003dac4   Data          32  nrf_fstorage_nvmc.o(.constdata)
    nrf_fstorage_sd                          0x0003daf4   Data          32  nrf_fstorage_sd.o(.constdata)
    m_ram_start                              0x0003dc8c   Data           4  nrf_sdh_ble.o(.constdata)
    Region$$Table$$Base                      0x0003dd8c   Number         0  anon$$obj.o(Region$$Table)
    Region$$Table$$Limit                     0x0003ddac   Number         0  anon$$obj.o(Region$$Table)
    ble_dfu_transport                        0x0003ddac   Data           8  nrf_dfu_ble.o(dfu_trans)
    dfu_trans$$Base                          0x0003ddac   Number         0  nrf_dfu_ble.o(dfu_trans)
    dfu_trans$$Limit                         0x0003ddb4   Number         0  nrf_dfu_ble.o(dfu_trans)
    m_buffer_pool                            0x0003ddb4   Data          20  nrf_dfu_ble.o(nrf_balloc)
    sdh_ble_observers2$$Base                 0x0003ddc8   Number         0  nrf_dfu_ble.o(sdh_ble_observers2)
    m_req_obs                                0x0003ddd0   Data           8  nrf_fstorage_sd.o(sdh_req_observers0)
    sdh_ble_observers2$$Limit                0x0003ddd0   Number         0  nrf_dfu_ble.o(sdh_ble_observers2)
    sdh_req_observers0$$Base                 0x0003ddd0   Number         0  nrf_fstorage_sd.o(sdh_req_observers0)
    sdh_req_observers0$$Limit                0x0003ddd8   Number         0  nrf_fstorage_sd.o(sdh_req_observers0)
    sdh_soc_observers0$$Base                 0x0003ddd8   Number         0  nrf_fstorage_sd.o(sdh_soc_observers0)
    sdh_soc_observers0$$Limit                0x0003dde0   Number         0  nrf_fstorage_sd.o(sdh_soc_observers0)
    sdh_stack_observers0$$Base               0x0003dde0   Number         0  nrf_sdh_ble.o(sdh_stack_observers0)
    sdh_stack_observers0$$Limit              0x0003ddf0   Number         0  nrf_sdh_soc.o(sdh_stack_observers0)
    sdh_state_observers0$$Base               0x0003ddf0   Number         0  nrf_fstorage_sd.o(sdh_state_observers0)
    nrf_dfu_set_adv_name_var                 0x0003ddf8   Data          12  nrf_dfu_svci_handler.o(svc_data)
    sdh_state_observers0$$Limit              0x0003ddf8   Number         0  nrf_fstorage_sd.o(sdh_state_observers0)
    svc_data$$Base                           0x0003ddf8   Number         0  nrf_dfu_svci_handler.o(svc_data)
    svc_data$$Limit                          0x0003de04   Number         0  nrf_dfu_svci_handler.o(svc_data)
    m_mbr_params_page                        0x0003e000   Data        4096  nrf_dfu_settings.o(.ARM.__AT_0x0003E000)
    m_dfu_settings_buffer                    0x0003f000   Data        4096  nrf_dfu_settings.o(.ARM.__AT_0x0003F000)
    m_uicr_bootloader_start_address          0x10001014   Data           4  nrf_bootloader_info.o(.ARM.__AT_0x10001014)
    m_uicr_mbr_params_page_address           0x10001018   Data           4  nrf_dfu_settings.o(.ARM.__AT_0x10001018)
    Image$$RW_IRAM1$$Base                    0x20002ae8   Number         0  anon$$obj.o ABSOLUTE
    mp_inactivity                            0x20002af8   Data           4  nrf_bootloader_dfu_timers.o(.data)
    mp_wdt_feed                              0x20002afc   Data           4  nrf_bootloader_dfu_timers.o(.data)
    m_counter_loops                          0x20002b00   Data           4  nrf_bootloader_dfu_timers.o(.data)
    m_timers                                 0x20002b04   Data          32  nrf_bootloader_dfu_timers.o(.data)
    mp_dfu_settings_backup_buffer            0x20002b58   Data           4  nrf_dfu_settings.o(.data)
    SystemCoreClock                          0x20002b8c   Data           4  system_nrf52820.o(.data)
    fs_data$$Base                            0x20002b90   Number         0  nrf_dfu_flash.o(fs_data)
    m_fs                                     0x20002b90   Data          20  nrf_dfu_flash.o(fs_data)
    fs_data$$Limit                           0x20002ba4   Number         0  nrf_dfu_flash.o(fs_data)
    s_dfu_settings                           0x2000475c   Data         896  nrf_dfu_settings.o(.bss)
    nrf_nvic_state                           0x20004ed0   Data          12  app_util_platform.o(.bss)
    __initial_sp                             0x200058e0   Data           0  arm_startup_nrf52820.o(STACK)



==============================================================================

Memory Map of the image

  Image Entry point : 0x00038201

  Load Region LR_IROM1 (Base: 0x00038000, Size: 0x00005ec0, Max: 0x00006000, ABSOLUTE)

    Execution Region ER_IROM1 (Exec base: 0x00038000, Load base: 0x00038000, Size: 0x00005e04, Max: 0x00006000, ABSOLUTE)

    Exec Addr    Load Addr    Size         Type   Attr      Idx    E Section Name        Object

    0x00038000   0x00038000   0x00000200   Data   RO         4491    RESET               arm_startup_nrf52820.o
    0x00038200   0x00038200   0x00000000   Code   RO         4630  * .ARM.Collect$$$$00000000  mc_w.l(entry.o)
    0x00038200   0x00038200   0x00000004   Code   RO         4647    .ARM.Collect$$$$00000001  mc_w.l(entry2.o)
    0x00038204   0x00038204   0x00000004   Code   RO         4650    .ARM.Collect$$$$00000004  mc_w.l(entry5.o)
    0x00038208   0x00038208   0x00000000   Code   RO         4652    .ARM.Collect$$$$00000008  mc_w.l(entry7b.o)
    0x00038208   0x00038208   0x00000000   Code   RO         4654    .ARM.Collect$$$$0000000A  mc_w.l(entry8b.o)
    0x00038208   0x00038208   0x00000008   Code   RO         4655    .ARM.Collect$$$$0000000B  mc_w.l(entry9a.o)
    0x00038210   0x00038210   0x00000000   Code   RO         4657    .ARM.Collect$$$$0000000D  mc_w.l(entry10a.o)
    0x00038210   0x00038210   0x00000000   Code   RO         4659    .ARM.Collect$$$$0000000F  mc_w.l(entry11a.o)
    0x00038210   0x00038210   0x00000004   Code   RO         4648    .ARM.Collect$$$$00002712  mc_w.l(entry2.o)
    0x00038214   0x00038214   0x000000c8   Code   RO         3243    .emb_text           nrf_atfifo.o
    0x000382dc   0x000382dc   0x000000e2   Code   RO         3316    .emb_text           nrf_atomic.o
    0x000383be   0x000383be   0x00000002   PAD
    0x000383c0   0x000383c0   0x00000014   Code   RO         4050    .emb_text           nrf_svc_handler.o
    0x000383d4   0x000383d4   0x00000024   Code   RO         4492    .text               arm_startup_nrf52820.o
    0x000383f8   0x000383f8   0x0000001e   Code   RO         4633    .text               mc_w.l(llshl.o)
    0x00038416   0x00038416   0x00000024   Code   RO         4635    .text               mc_w.l(memcpya.o)
    0x0003843a   0x0003843a   0x00000024   Code   RO         4639    .text               mc_w.l(memseta.o)
    0x0003845e   0x0003845e   0x0000001a   Code   RO         4643    .text               mc_w.l(memcmp.o)
    0x00038478   0x00038478   0x00000024   Code   RO         4661    .text               mc_w.l(init.o)
    0x0003849c   0x0003849c   0x000000ca   Code   RO         4582    .text.XYcZ_add      micro_ecc_lib_nrf52.lib(uECC.c.o)
    0x00038566   0x00038566   0x0000003e   Code   RO         4583    .text.apply_z       micro_ecc_lib_nrf52.lib(uECC.c.o)
    0x000385a4   0x000385a4   0x0000000c   Code   RO         4538    .text.bcopy         micro_ecc_lib_nrf52.lib(uECC.c.o)
    0x000385b0   0x000385b0   0x00000088   Code   RO         4555    .text.bits2int      micro_ecc_lib_nrf52.lib(uECC.c.o)
    0x00038638   0x00038638   0x00000154   Code   RO         4578    .text.double_jacobian_default  micro_ecc_lib_nrf52.lib(uECC.c.o)
    0x0003878c   0x0003878c   0x00000008   Code   RO         4590    .text.uECC_secp256r1  micro_ecc_lib_nrf52.lib(uECC.c.o)
    0x00038794   0x00038794   0x000002d4   Code   RO         4603    .text.uECC_verify   micro_ecc_lib_nrf52.lib(uECC.c.o)
    0x00038a68   0x00038a68   0x00000008   PAD
    0x00038a70   0x00038a70   0x00000058   Code   RO         4544    .text.uECC_vli_add  micro_ecc_lib_nrf52.lib(uECC.c.o)
    0x00038ac8   0x00038ac8   0x00000018   Code   RO         4553    .text.uECC_vli_clear  micro_ecc_lib_nrf52.lib(uECC.c.o)
    0x00038ae0   0x00038ae0   0x0000002a   Code   RO         4539    .text.uECC_vli_cmp_unsafe  micro_ecc_lib_nrf52.lib(uECC.c.o)
    0x00038b0a   0x00038b0a   0x0000002a   Code   RO         4564    .text.uECC_vli_equal  micro_ecc_lib_nrf52.lib(uECC.c.o)
    0x00038b34   0x00038b34   0x0000001e   Code   RO         4556    .text.uECC_vli_isZero  micro_ecc_lib_nrf52.lib(uECC.c.o)
    0x00038b52   0x00038b52   0x00000002   PAD
    0x00038b54   0x00038b54   0x0000013c   Code   RO         4572    .text.uECC_vli_mmod  micro_ecc_lib_nrf52.lib(uECC.c.o)
    0x00038c90   0x00038c90   0x00000032   Code   RO         4570    .text.uECC_vli_modAdd  micro_ecc_lib_nrf52.lib(uECC.c.o)
    0x00038cc2   0x00038cc2   0x0000010c   Code   RO         4584    .text.uECC_vli_modInv  micro_ecc_lib_nrf52.lib(uECC.c.o)
    0x00038dce   0x00038dce   0x00000024   Code   RO         4573    .text.uECC_vli_modMult  micro_ecc_lib_nrf52.lib(uECC.c.o)
    0x00038df2   0x00038df2   0x00000020   Code   RO         4574    .text.uECC_vli_modMult_fast  micro_ecc_lib_nrf52.lib(uECC.c.o)
    0x00038e12   0x00038e12   0x00000020   Code   RO         4576    .text.uECC_vli_modSquare_fast  micro_ecc_lib_nrf52.lib(uECC.c.o)
    0x00038e32   0x00038e32   0x00000024   Code   RO         4571    .text.uECC_vli_modSub  micro_ecc_lib_nrf52.lib(uECC.c.o)
    0x00038e56   0x00038e56   0x00000312   Code   RO         4547    .text.uECC_vli_mult  micro_ecc_lib_nrf52.lib(uECC.c.o)
    0x00039168   0x00039168   0x00000044   Code   RO         4559    .text.uECC_vli_numBits  micro_ecc_lib_nrf52.lib(uECC.c.o)
    0x000391ac   0x000391ac   0x0000001a   Code   RO         4566    .text.uECC_vli_rshift1  micro_ecc_lib_nrf52.lib(uECC.c.o)
    0x000391c6   0x000391c6   0x0000001a   Code   RO         4560    .text.uECC_vli_set  micro_ecc_lib_nrf52.lib(uECC.c.o)
    0x000391e0   0x000391e0   0x0000028c   Code   RO         4548    .text.uECC_vli_square  micro_ecc_lib_nrf52.lib(uECC.c.o)
    0x0003946c   0x0003946c   0x00000004   PAD
    0x00039470   0x00039470   0x00000060   Code   RO         4546    .text.uECC_vli_sub  micro_ecc_lib_nrf52.lib(uECC.c.o)
    0x000394d0   0x000394d0   0x00000012   Code   RO         4557    .text.uECC_vli_testBit  micro_ecc_lib_nrf52.lib(uECC.c.o)
    0x000394e2   0x000394e2   0x00000002   PAD
    0x000394e4   0x000394e4   0x000001b0   Code   RO         4563    .text.vli_mmod_fast_secp256r1  micro_ecc_lib_nrf52.lib(uECC.c.o)
    0x00039694   0x00039694   0x0000003a   Code   RO         4567    .text.vli_modInv_update  micro_ecc_lib_nrf52.lib(uECC.c.o)
    0x000396ce   0x000396ce   0x0000005a   Code   RO         4577    .text.x_side_default  micro_ecc_lib_nrf52.lib(uECC.c.o)
    0x00039728   0x00039728   0x00000074   Code   RO          700    i.RTC1_IRQHandler   nrf_bootloader_dfu_timers.o
    0x0003979c   0x0003979c   0x00000004   Code   RO         4079    i.SWI2_EGU2_IRQHandler  nrf_sdh.o
    0x000397a0   0x000397a0   0x0000016c   Code   RO         4500    i.SystemInit        system_nrf52820.o
    0x0003990c   0x0003990c   0x00000014   Code   RO          879    i.WDT_IRQHandler    nrf_bootloader_wdt.o
    0x00039920   0x00039920   0x0000000e   Code   RO         4665    i.__scatterload_copy  mc_w.l(handlers.o)
    0x0003992e   0x0003992e   0x00000002   Code   RO         4666    i.__scatterload_null  mc_w.l(handlers.o)
    0x00039930   0x00039930   0x0000000e   Code   RO         4667    i.__scatterload_zeroinit  mc_w.l(handlers.o)
    0x0003993e   0x0003993e   0x00000002   PAD
    0x00039940   0x00039940   0x00000024   Code   RO         4080    i.__sd_nvic_app_accessible_irq  nrf_sdh.o
    0x00039964   0x00039964   0x0000000c   Code   RO         3492    i.addr_is_aligned32  nrf_fstorage.o
    0x00039970   0x00039970   0x00000018   Code   RO         3493    i.addr_is_within_bounds  nrf_fstorage.o
    0x00039988   0x00039988   0x0000006c   Code   RO         1723    i.advertising_init  nrf_dfu_ble.o
    0x000399f4   0x000399f4   0x00000034   Code   RO         1724    i.advertising_start  nrf_dfu_ble.o
    0x00039a28   0x00039a28   0x00000048   Code   RO          784    i.app_activate      nrf_bootloader_fw_activation.o
    0x00039a70   0x00039a70   0x00000004   Code   RO           21    i.app_error_fault_handler  main.o
    0x00039a74   0x00039a74   0x00000004   Code   RO           23    i.app_error_handler_bare  main.o
    0x00039a78   0x00039a78   0x000000a0   Code   RO         2982    i.app_sched_event_put  app_scheduler.o
    0x00039b18   0x00039b18   0x00000040   Code   RO         2983    i.app_sched_execute  app_scheduler.o
    0x00039b58   0x00039b58   0x0000002c   Code   RO         2984    i.app_sched_init    app_scheduler.o
    0x00039b84   0x00039b84   0x00000048   Code   RO         3037    i.app_util_critical_region_enter  app_util_platform.o
    0x00039bcc   0x00039bcc   0x00000034   Code   RO         3038    i.app_util_critical_region_exit  app_util_platform.o
    0x00039c00   0x00039c00   0x0000004c   Code   RO          785    i.bl_activate       nrf_bootloader_fw_activation.o
    0x00039c4c   0x00039c4c   0x000000c4   Code   RO         1725    i.ble_dfu_init      nrf_dfu_ble.o
    0x00039d10   0x00039d10   0x000000b8   Code   RO         1726    i.ble_dfu_req_handler_callback  nrf_dfu_ble.o
    0x00039dc8   0x00039dc8   0x00000060   Code   RO         1727    i.ble_dfu_transport_close  nrf_dfu_ble.o
    0x00039e28   0x00039e28   0x00000098   Code   RO         1729    i.ble_dfu_transport_init  nrf_dfu_ble.o
    0x00039ec0   0x00039ec0   0x000001d8   Code   RO         1730    i.ble_evt_handler   nrf_dfu_ble.o
    0x0003a098   0x0003a098   0x00000008   Code   RO          434    i.ble_srv_is_notification_enabled  ble_srv_common.o
    0x0003a0a0   0x0003a0a0   0x00000010   Code   RO          515    i.boot_validate     nrf_bootloader.o
    0x0003a0b0   0x0003a0b0   0x0000000c   Code   RO         2310    i.boot_validation_crc  nrf_dfu_settings.o
    0x0003a0bc   0x0003a0bc   0x00000098   Code   RO         2556    i.boot_validation_extract  nrf_dfu_validation.o
    0x0003a154   0x0003a154   0x00000024   Code   RO          516    i.bootloader_reset  nrf_bootloader.o
    0x0003a178   0x0003a178   0x00000054   Code   RO          327    i.bsp_board_init    boards.o
    0x0003a1cc   0x0003a1cc   0x00000010   Code   RO          330    i.bsp_board_led_off  boards.o
    0x0003a1dc   0x0003a1dc   0x00000010   Code   RO          331    i.bsp_board_led_on  boards.o
    0x0003a1ec   0x0003a1ec   0x00000012   Code   RO          333    i.bsp_board_leds_off  boards.o
    0x0003a1fe   0x0003a1fe   0x0000001c   Code   RO         4307    i.buf_read          pb_decode.o
    0x0003a21a   0x0003a21a   0x00000002   PAD
    0x0003a21c   0x0003a21c   0x00000010   Code   RO         2033    i.cmd_response_offset_and_crc_set  nrf_dfu_req_handler.o
    0x0003a22c   0x0003a22c   0x0000003c   Code   RO         3105    i.crc32_compute     crc32.o
    0x0003a268   0x0003a268   0x0000001e   Code   RO         2311    i.crc_ok            nrf_dfu_settings.o
    0x0003a286   0x0003a286   0x00000002   PAD
    0x0003a288   0x0003a288   0x00000040   Code   RO         2557    i.crypto_init       nrf_dfu_validation.o
    0x0003a2c8   0x0003a2c8   0x0000007e   Code   RO         4308    i.decode_callback_field  pb_decode.o
    0x0003a346   0x0003a346   0x0000001a   Code   RO         4309    i.decode_field      pb_decode.o
    0x0003a360   0x0003a360   0x000000e0   Code   RO         4310    i.decode_static_field  pb_decode.o
    0x0003a440   0x0003a440   0x0000009c   Code   RO          517    i.dfu_enter_check   nrf_bootloader.o
    0x0003a4dc   0x0003a4dc   0x0000000c   Code   RO         1897    i.dfu_fstorage_evt_handler  nrf_dfu_flash.o
    0x0003a4e8   0x0003a4e8   0x00000040   Code   RO           24    i.dfu_observer      main.o
    0x0003a528   0x0003a528   0x00000048   Code   RO          518    i.dfu_observer      nrf_bootloader.o
    0x0003a570   0x0003a570   0x00000028   Code   RO         1689    i.dfu_observer      nrf_dfu.o
    0x0003a598   0x0003a598   0x00000024   Code   RO          519    i.do_reset          nrf_bootloader.o
    0x0003a5bc   0x0003a5bc   0x00000048   Code   RO         3578    i.erase             nrf_fstorage_nvmc.o
    0x0003a604   0x0003a604   0x0000004c   Code   RO         3652    i.erase             nrf_fstorage_sd.o
    0x0003a650   0x0003a650   0x00000036   Code   RO         3579    i.event_send        nrf_fstorage_nvmc.o
    0x0003a686   0x0003a686   0x00000054   Code   RO         3653    i.event_send        nrf_fstorage_sd.o
    0x0003a6da   0x0003a6da   0x0000000e   Code   RO         2034    i.ext_err_code_handle  nrf_dfu_req_handler.o
    0x0003a6e8   0x0003a6e8   0x00000010   Code   RO         1958    i.ext_error_get     nrf_dfu_handling_error.o
    0x0003a6f8   0x0003a6f8   0x0000000c   Code   RO         1959    i.ext_error_set     nrf_dfu_handling_error.o
    0x0003a704   0x0003a704   0x0000000c   Code   RO          520    i.flash_write_callback  nrf_bootloader.o
    0x0003a710   0x0003a710   0x0000000c   Code   RO          786    i.flash_write_callback  nrf_bootloader_fw_activation.o
    0x0003a71c   0x0003a71c   0x00000008   Code   RO         2558    i.fw_hash_ok        nrf_dfu_validation.o
    0x0003a724   0x0003a724   0x00000068   Code   RO         1731    i.gap_params_init   nrf_dfu_ble.o
    0x0003a78c   0x0003a78c   0x00000090   Code   RO          787    i.image_copy        nrf_bootloader_fw_activation.o
    0x0003a81c   0x0003a81c   0x00000006   Code   RO          521    i.inactivity_timeout  nrf_bootloader.o
    0x0003a822   0x0003a822   0x00000002   PAD
    0x0003a824   0x0003a824   0x0000000c   Code   RO         3580    i.init              nrf_fstorage_nvmc.o
    0x0003a830   0x0003a830   0x00000038   Code   RO         3654    i.init              nrf_fstorage_sd.o
    0x0003a868   0x0003a868   0x00000010   Code   RO         3581    i.is_busy           nrf_fstorage_nvmc.o
    0x0003a878   0x0003a878   0x00000010   Code   RO         3655    i.is_busy           nrf_fstorage_sd.o
    0x0003a888   0x0003a888   0x00000060   Code   RO         2559    i.is_major_softdevice_update  nrf_dfu_validation.o
    0x0003a8e8   0x0003a8e8   0x0000002e   Code   RO         4311    i.iter_from_extension  pb_decode.o
    0x0003a916   0x0003a916   0x00000002   PAD
    0x0003a918   0x0003a918   0x00000030   Code   RO           25    i.main              main.o
    0x0003a948   0x0003a948   0x00000010   Code   RO         3245    i.nrf_atfifo_clear  nrf_atfifo.o
    0x0003a958   0x0003a958   0x00000026   Code   RO         3247    i.nrf_atfifo_init   nrf_atfifo.o
    0x0003a97e   0x0003a97e   0x00000016   Code   RO         3248    i.nrf_atfifo_item_alloc  nrf_atfifo.o
    0x0003a994   0x0003a994   0x00000016   Code   RO         3249    i.nrf_atfifo_item_free  nrf_atfifo.o
    0x0003a9aa   0x0003a9aa   0x00000016   Code   RO         3250    i.nrf_atfifo_item_get  nrf_atfifo.o
    0x0003a9c0   0x0003a9c0   0x00000016   Code   RO         3251    i.nrf_atfifo_item_put  nrf_atfifo.o
    0x0003a9d6   0x0003a9d6   0x00000006   Code   RO         3317    i.nrf_atomic_flag_clear  nrf_atomic.o
    0x0003a9dc   0x0003a9dc   0x00000006   Code   RO         3320    i.nrf_atomic_flag_set_fetch  nrf_atomic.o
    0x0003a9e2   0x0003a9e2   0x0000000c   Code   RO         3322    i.nrf_atomic_u32_and  nrf_atomic.o
    0x0003a9ee   0x0003a9ee   0x0000000a   Code   RO         3326    i.nrf_atomic_u32_fetch_or  nrf_atomic.o
    0x0003a9f8   0x0003a9f8   0x00000044   Code   RO         3455    i.nrf_balloc_alloc  nrf_balloc.o
    0x0003aa3c   0x0003aa3c   0x00000030   Code   RO         3456    i.nrf_balloc_free   nrf_balloc.o
    0x0003aa6c   0x0003aa6c   0x00000030   Code   RO         3457    i.nrf_balloc_init   nrf_balloc.o
    0x0003aa9c   0x0003aa9c   0x00000024   Code   RO          633    i.nrf_bootloader_app_start  nrf_bootloader_app_start.o
    0x0003aac0   0x0003aac0   0x00000060   Code   RO          661    i.nrf_bootloader_app_start_final  nrf_bootloader_app_start_final.o
    0x0003ab20   0x0003ab20   0x00000028   Code   RO          701    i.nrf_bootloader_dfu_inactivity_timer_restart  nrf_bootloader_dfu_timers.o
    0x0003ab48   0x0003ab48   0x00000040   Code   RO          662    i.nrf_bootloader_flash_protect  nrf_bootloader_app_start_final.o
    0x0003ab88   0x0003ab88   0x00000074   Code   RO          788    i.nrf_bootloader_fw_activate  nrf_bootloader_fw_activation.o
    0x0003abfc   0x0003abfc   0x0000012c   Code   RO          522    i.nrf_bootloader_init  nrf_bootloader.o
    0x0003ad28   0x0003ad28   0x00000030   Code   RO          840    i.nrf_bootloader_mbr_addrs_populate  nrf_bootloader_info.o
    0x0003ad58   0x0003ad58   0x00000014   Code   RO          880    i.nrf_bootloader_wdt_feed  nrf_bootloader_wdt.o
    0x0003ad6c   0x0003ad6c   0x00000014   Code   RO          703    i.nrf_bootloader_wdt_feed_timer_start  nrf_bootloader_dfu_timers.o
    0x0003ad80   0x0003ad80   0x00000048   Code   RO          881    i.nrf_bootloader_wdt_init  nrf_bootloader_wdt.o
    0x0003adc8   0x0003adc8   0x00000006   Code   RO         1481    i.nrf_crypto_backend_micro_ecc_curve_get  micro_ecc_backend_ecc.o
    0x0003adce   0x0003adce   0x00000010   Code   RO         1486    i.nrf_crypto_backend_micro_ecc_public_key_from_raw  micro_ecc_backend_ecc.o
    0x0003adde   0x0003adde   0x00000056   Code   RO         1639    i.nrf_crypto_backend_micro_ecc_verify  micro_ecc_backend_ecdsa.o
    0x0003ae34   0x0003ae34   0x00000034   Code   RO          950    i.nrf_crypto_ecc_public_key_from_raw  nrf_crypto_ecc.o
    0x0003ae68   0x0003ae68   0x0000004c   Code   RO         1107    i.nrf_crypto_ecdsa_verify  nrf_crypto_ecdsa.o
    0x0003aeb4   0x0003aeb4   0x00000036   Code   RO         1182    i.nrf_crypto_hash_calculate  nrf_crypto_hash.o
    0x0003aeea   0x0003aeea   0x00000036   Code   RO         1183    i.nrf_crypto_hash_finalize  nrf_crypto_hash.o
    0x0003af20   0x0003af20   0x0000002c   Code   RO         1184    i.nrf_crypto_hash_init  nrf_crypto_hash.o
    0x0003af4c   0x0003af4c   0x0000002e   Code   RO         1185    i.nrf_crypto_hash_update  nrf_crypto_hash.o
    0x0003af7a   0x0003af7a   0x00000002   PAD
    0x0003af7c   0x0003af7c   0x00000040   Code   RO         1260    i.nrf_crypto_init   nrf_crypto_init.o
    0x0003afbc   0x0003afbc   0x0000001a   Code   RO         1311    i.nrf_crypto_internal_double_swap_endian  nrf_crypto_shared.o
    0x0003afd6   0x0003afd6   0x00000016   Code   RO         1312    i.nrf_crypto_internal_double_swap_endian_in_place  nrf_crypto_shared.o
    0x0003afec   0x0003afec   0x00000018   Code   RO          952    i.nrf_crypto_internal_ecc_key_input_check  nrf_crypto_ecc.o
    0x0003b004   0x0003b004   0x0000001a   Code   RO          953    i.nrf_crypto_internal_ecc_key_output_prepare  nrf_crypto_ecc.o
    0x0003b01e   0x0003b01e   0x00000016   Code   RO          954    i.nrf_crypto_internal_ecc_raw_input_check  nrf_crypto_ecc.o
    0x0003b034   0x0003b034   0x00000016   Code   RO         1313    i.nrf_crypto_internal_swap_endian  nrf_crypto_shared.o
    0x0003b04a   0x0003b04a   0x00000018   Code   RO         1314    i.nrf_crypto_internal_swap_endian_in_place  nrf_crypto_shared.o
    0x0003b062   0x0003b062   0x00000002   PAD
    0x0003b064   0x0003b064   0x00000028   Code   RO         2488    i.nrf_dfu_bank0_start_addr  nrf_dfu_utils.o
    0x0003b08c   0x0003b08c   0x00000020   Code   RO         2489    i.nrf_dfu_bank1_start_addr  nrf_dfu_utils.o
    0x0003b0ac   0x0003b0ac   0x00000014   Code   RO         2490    i.nrf_dfu_bank_invalidate  nrf_dfu_utils.o
    0x0003b0c0   0x0003b0c0   0x00000098   Code   RO         2491    i.nrf_dfu_cache_prepare  nrf_dfu_utils.o
    0x0003b158   0x0003b158   0x00000094   Code   RO         2035    i.nrf_dfu_command_req  nrf_dfu_req_handler.o
    0x0003b1ec   0x0003b1ec   0x00000074   Code   RO         2036    i.nrf_dfu_data_req  nrf_dfu_req_handler.o
    0x0003b260   0x0003b260   0x00000010   Code   RO         1898    i.nrf_dfu_flash_erase  nrf_dfu_flash.o
    0x0003b270   0x0003b270   0x0000001c   Code   RO         1899    i.nrf_dfu_flash_init  nrf_dfu_flash.o
    0x0003b28c   0x0003b28c   0x00000018   Code   RO         1900    i.nrf_dfu_flash_store  nrf_dfu_flash.o
    0x0003b2a4   0x0003b2a4   0x0000002c   Code   RO         1690    i.nrf_dfu_init      nrf_dfu.o
    0x0003b2d0   0x0003b2d0   0x00000004   Code   RO          524    i.nrf_dfu_init_user  nrf_bootloader.o
    0x0003b2d4   0x0003b2d4   0x00000016   Code   RO         1990    i.nrf_dfu_mbr_copy_bl  nrf_dfu_mbr.o
    0x0003b2ea   0x0003b2ea   0x00000002   PAD
    0x0003b2ec   0x0003b2ec   0x00000018   Code   RO         1991    i.nrf_dfu_mbr_init_sd  nrf_dfu_mbr.o
    0x0003b304   0x0003b304   0x0000000c   Code   RO         1992    i.nrf_dfu_mbr_irq_forward_address_set  nrf_dfu_mbr.o
    0x0003b310   0x0003b310   0x00000044   Code   RO         2037    i.nrf_dfu_req_handler_init  nrf_dfu_req_handler.o
    0x0003b354   0x0003b354   0x00000014   Code   RO         2038    i.nrf_dfu_req_handler_on_req  nrf_dfu_req_handler.o
    0x0003b368   0x0003b368   0x00000004   Code   RO         2039    i.nrf_dfu_req_handler_req  nrf_dfu_req_handler.o
    0x0003b36c   0x0003b36c   0x00000090   Code   RO         2040    i.nrf_dfu_req_handler_req_process  nrf_dfu_req_handler.o
    0x0003b3fc   0x0003b3fc   0x00000020   Code   RO         3999    i.nrf_dfu_set_adv_name_handler  nrf_dfu_svci_handler.o
    0x0003b41c   0x0003b41c   0x00000038   Code   RO         4000    i.nrf_dfu_set_adv_name_on_call  nrf_dfu_svci_handler.o
    0x0003b454   0x0003b454   0x00000024   Code   RO         4001    i.nrf_dfu_set_adv_name_on_sys_evt  nrf_dfu_svci_handler.o
    0x0003b478   0x0003b478   0x00000034   Code   RO         2409    i.nrf_dfu_settings_additional_erase  nrf_dfu_settings_svci.o
    0x0003b4ac   0x0003b4ac   0x00000018   Code   RO         2410    i.nrf_dfu_settings_adv_name_copy  nrf_dfu_settings_svci.o
    0x0003b4c4   0x0003b4c4   0x00000020   Code   RO         2411    i.nrf_dfu_settings_adv_name_is_valid  nrf_dfu_settings_svci.o
    0x0003b4e4   0x0003b4e4   0x00000038   Code   RO         2412    i.nrf_dfu_settings_adv_name_write  nrf_dfu_settings_svci.o
    0x0003b51c   0x0003b51c   0x0000000c   Code   RO         2313    i.nrf_dfu_settings_backup  nrf_dfu_settings.o
    0x0003b528   0x0003b528   0x0000001a   Code   RO         2314    i.nrf_dfu_settings_init  nrf_dfu_settings.o
    0x0003b542   0x0003b542   0x00000002   PAD
    0x0003b544   0x0003b544   0x00000028   Code   RO         2315    i.nrf_dfu_settings_progress_reset  nrf_dfu_settings.o
    0x0003b56c   0x0003b56c   0x000000e4   Code   RO         2316    i.nrf_dfu_settings_reinit  nrf_dfu_settings.o
    0x0003b650   0x0003b650   0x00000034   Code   RO         2317    i.nrf_dfu_settings_write  nrf_dfu_settings.o
    0x0003b684   0x0003b684   0x00000020   Code   RO         2318    i.nrf_dfu_settings_write_and_backup  nrf_dfu_settings.o
    0x0003b6a4   0x0003b6a4   0x00000006   Code   RO         2492    i.nrf_dfu_softdevice_start_address  nrf_dfu_utils.o
    0x0003b6aa   0x0003b6aa   0x00000002   PAD
    0x0003b6ac   0x0003b6ac   0x00000034   Code   RO         2456    i.nrf_dfu_transports_close  nrf_dfu_transport.o
    0x0003b6e0   0x0003b6e0   0x00000034   Code   RO         2457    i.nrf_dfu_transports_init  nrf_dfu_transport.o
    0x0003b714   0x0003b714   0x00000006   Code   RO         2560    i.nrf_dfu_validation_activation_prepare  nrf_dfu_validation.o
    0x0003b71a   0x0003b71a   0x00000052   Code   RO         2561    i.nrf_dfu_validation_boot_validate  nrf_dfu_validation.o
    0x0003b76c   0x0003b76c   0x00000064   Code   RO         2562    i.nrf_dfu_validation_hash_ok  nrf_dfu_validation.o
    0x0003b7d0   0x0003b7d0   0x00000024   Code   RO         2563    i.nrf_dfu_validation_init  nrf_dfu_validation.o
    0x0003b7f4   0x0003b7f4   0x00000048   Code   RO         2564    i.nrf_dfu_validation_init_cmd_append  nrf_dfu_validation.o
    0x0003b83c   0x0003b83c   0x00000034   Code   RO         2565    i.nrf_dfu_validation_init_cmd_create  nrf_dfu_validation.o
    0x0003b870   0x0003b870   0x00000094   Code   RO         2566    i.nrf_dfu_validation_init_cmd_execute  nrf_dfu_validation.o
    0x0003b904   0x0003b904   0x0000000c   Code   RO         2567    i.nrf_dfu_validation_init_cmd_present  nrf_dfu_validation.o
    0x0003b910   0x0003b910   0x00000048   Code   RO         2570    i.nrf_dfu_validation_prevalidate  nrf_dfu_validation.o
    0x0003b958   0x0003b958   0x00000094   Code   RO         2571    i.nrf_dfu_validation_signature_check  nrf_dfu_validation.o
    0x0003b9ec   0x0003b9ec   0x00000080   Code   RO         2716    i.nrf_dfu_ver_validation_check  nrf_dfu_ver_validation.o
    0x0003ba6c   0x0003ba6c   0x0000002c   Code   RO         3494    i.nrf_fstorage_erase  nrf_fstorage.o
    0x0003ba98   0x0003ba98   0x00000008   Code   RO         3495    i.nrf_fstorage_init  nrf_fstorage.o
    0x0003baa0   0x0003baa0   0x00000050   Code   RO         3496    i.nrf_fstorage_is_busy  nrf_fstorage.o
    0x0003baf0   0x0003baf0   0x00000018   Code   RO         3656    i.nrf_fstorage_sdh_req_handler  nrf_fstorage_sd.o
    0x0003bb08   0x0003bb08   0x00000020   Code   RO         3657    i.nrf_fstorage_sdh_state_handler  nrf_fstorage_sd.o
    0x0003bb28   0x0003bb28   0x000000a0   Code   RO         3658    i.nrf_fstorage_sys_evt_handler  nrf_fstorage_sd.o
    0x0003bbc8   0x0003bbc8   0x0000003e   Code   RO         3501    i.nrf_fstorage_write  nrf_fstorage.o
    0x0003bc06   0x0003bc06   0x00000024   Code   RO          337    i.nrf_gpio_cfg      boards.o
    0x0003bc2a   0x0003bc2a   0x00000016   Code   RO          338    i.nrf_gpio_pin_write  boards.o
    0x0003bc40   0x0003bc40   0x00000030   Code   RO         2758    i.nrf_nvmc_page_erase  nrf_nvmc.o
    0x0003bc70   0x0003bc70   0x00000030   Code   RO         2761    i.nrf_nvmc_write_word  nrf_nvmc.o
    0x0003bca0   0x0003bca0   0x00000044   Code   RO         2762    i.nrf_nvmc_write_words  nrf_nvmc.o
    0x0003bce4   0x0003bce4   0x0000000c   Code   RO          525    i.nrf_power_gpregret_get  nrf_bootloader.o
    0x0003bcf0   0x0003bcf0   0x0000000c   Code   RO          704    i.nrf_rtc_event_clear  nrf_bootloader_dfu_timers.o
    0x0003bcfc   0x0003bcfc   0x00000014   Code   RO         4197    i.nrf_sdh_ble_app_ram_start_get  nrf_sdh_ble.o
    0x0003bd10   0x0003bd10   0x0000009c   Code   RO         4198    i.nrf_sdh_ble_default_cfg_set  nrf_sdh_ble.o
    0x0003bdac   0x0003bdac   0x00000014   Code   RO         4199    i.nrf_sdh_ble_enable  nrf_sdh_ble.o
    0x0003bdc0   0x0003bdc0   0x00000060   Code   RO         4200    i.nrf_sdh_ble_evts_poll  nrf_sdh_ble.o
    0x0003be20   0x0003be20   0x00000054   Code   RO         4081    i.nrf_sdh_disable_request  nrf_sdh.o
    0x0003be74   0x0003be74   0x00000074   Code   RO         4082    i.nrf_sdh_enable_request  nrf_sdh.o
    0x0003bee8   0x0003bee8   0x00000024   Code   RO         4083    i.nrf_sdh_evts_poll  nrf_sdh.o
    0x0003bf0c   0x0003bf0c   0x0000000c   Code   RO         4084    i.nrf_sdh_is_enabled  nrf_sdh.o
    0x0003bf18   0x0003bf18   0x0000001c   Code   RO         4086    i.nrf_sdh_request_continue  nrf_sdh.o
    0x0003bf34   0x0003bf34   0x0000003c   Code   RO         4251    i.nrf_sdh_soc_evts_poll  nrf_sdh_soc.o
    0x0003bf70   0x0003bf70   0x0000000a   Code   RO         3848    i.nrf_section_iter_init  nrf_section_iter.o
    0x0003bf7a   0x0003bf7a   0x00000024   Code   RO         3849    i.nrf_section_iter_item_set  nrf_section_iter.o
    0x0003bf9e   0x0003bf9e   0x00000020   Code   RO         3850    i.nrf_section_iter_next  nrf_section_iter.o
    0x0003bfbe   0x0003bfbe   0x00000002   PAD
    0x0003bfc0   0x0003bfc0   0x0000005c   Code   RO         4051    i.nrf_svc_handler_c  nrf_svc_handler.o
    0x0003c01c   0x0003c01c   0x00000024   Code   RO         1436    i.nrf_sw_backend_hash_sha256_finalize  nrf_sw_backend_hash.o
    0x0003c040   0x0003c040   0x00000006   Code   RO         1437    i.nrf_sw_backend_hash_sha256_init  nrf_sw_backend_hash.o
    0x0003c046   0x0003c046   0x00000006   Code   RO         1438    i.nrf_sw_backend_hash_sha256_update  nrf_sw_backend_hash.o
    0x0003c04c   0x0003c04c   0x00000010   Code   RO          882    i.nrf_wdt_started   nrf_bootloader_wdt.o
    0x0003c05c   0x0003c05c   0x00000070   Code   RO         1732    i.on_ctrl_pt_write  nrf_dfu_ble.o
    0x0003c0cc   0x0003c0cc   0x00000074   Code   RO         2041    i.on_data_obj_create_request  nrf_dfu_req_handler.o
    0x0003c140   0x0003c140   0x00000078   Code   RO         2042    i.on_data_obj_execute_request_sched  nrf_dfu_req_handler.o
    0x0003c1b8   0x0003c1b8   0x00000080   Code   RO         2043    i.on_data_obj_write_request  nrf_dfu_req_handler.o
    0x0003c238   0x0003c238   0x0000000c   Code   RO         2044    i.on_dfu_complete   nrf_dfu_req_handler.o
    0x0003c244   0x0003c244   0x00000024   Code   RO           26    i.on_error          main.o
    0x0003c268   0x0003c268   0x0000000c   Code   RO         1733    i.on_flash_write    nrf_dfu_ble.o
    0x0003c274   0x0003c274   0x00000088   Code   RO         1734    i.on_rw_authorize_req  nrf_dfu_ble.o
    0x0003c2fc   0x0003c2fc   0x00000042   Code   RO         4313    i.pb_dec_bytes      pb_decode.o
    0x0003c33e   0x0003c33e   0x00000006   Code   RO         4314    i.pb_dec_fixed32    pb_decode.o
    0x0003c344   0x0003c344   0x00000006   Code   RO         4315    i.pb_dec_fixed64    pb_decode.o
    0x0003c34a   0x0003c34a   0x0000003e   Code   RO         4316    i.pb_dec_string     pb_decode.o
    0x0003c388   0x0003c388   0x00000040   Code   RO         4317    i.pb_dec_submessage  pb_decode.o
    0x0003c3c8   0x0003c3c8   0x00000058   Code   RO         4318    i.pb_dec_svarint    pb_decode.o
    0x0003c420   0x0003c420   0x00000058   Code   RO         4319    i.pb_dec_uvarint    pb_decode.o
    0x0003c478   0x0003c478   0x0000005a   Code   RO         4320    i.pb_dec_varint     pb_decode.o
    0x0003c4d2   0x0003c4d2   0x0000001e   Code   RO         4321    i.pb_decode         pb_decode.o
    0x0003c4f0   0x0003c4f0   0x00000020   Code   RO         4323    i.pb_decode_fixed32  pb_decode.o
    0x0003c510   0x0003c510   0x0000005c   Code   RO         4324    i.pb_decode_fixed64  pb_decode.o
    0x0003c56c   0x0003c56c   0x00000186   Code   RO         4325    i.pb_decode_noinit  pb_decode.o
    0x0003c6f2   0x0003c6f2   0x0000003a   Code   RO         4326    i.pb_decode_svarint  pb_decode.o
    0x0003c72c   0x0003c72c   0x00000042   Code   RO         4327    i.pb_decode_tag     pb_decode.o
    0x0003c76e   0x0003c76e   0x0000004a   Code   RO         4328    i.pb_decode_varint  pb_decode.o
    0x0003c7b8   0x0003c7b8   0x0000004c   Code   RO         4329    i.pb_decode_varint32  pb_decode.o
    0x0003c804   0x0003c804   0x0000003c   Code   RO         2573    i.pb_decoding_callback  nrf_dfu_validation.o
    0x0003c840   0x0003c840   0x00000022   Code   RO         4280    i.pb_field_iter_begin  pb_common.o
    0x0003c862   0x0003c862   0x0000002e   Code   RO         4281    i.pb_field_iter_find  pb_common.o
    0x0003c890   0x0003c890   0x0000007e   Code   RO         4282    i.pb_field_iter_next  pb_common.o
    0x0003c90e   0x0003c90e   0x000000a4   Code   RO         4330    i.pb_field_set_to_default  pb_decode.o
    0x0003c9b2   0x0003c9b2   0x00000002   PAD
    0x0003c9b4   0x0003c9b4   0x00000014   Code   RO         4331    i.pb_istream_from_buffer  pb_decode.o
    0x0003c9c8   0x0003c9c8   0x00000036   Code   RO         4332    i.pb_make_string_substream  pb_decode.o
    0x0003c9fe   0x0003c9fe   0x00000026   Code   RO         4333    i.pb_message_set_to_defaults  pb_decode.o
    0x0003ca24   0x0003ca24   0x00000058   Code   RO         4334    i.pb_read           pb_decode.o
    0x0003ca7c   0x0003ca7c   0x00000020   Code   RO         4335    i.pb_readbyte       pb_decode.o
    0x0003ca9c   0x0003ca9c   0x0000005a   Code   RO         4336    i.pb_skip_field     pb_decode.o
    0x0003caf6   0x0003caf6   0x00000002   PAD
    0x0003caf8   0x0003caf8   0x000000c4   Code   RO         2574    i.postvalidate      nrf_dfu_validation.o
    0x0003cbbc   0x0003cbbc   0x0000011c   Code   RO         2575    i.postvalidate_sd_bl  nrf_dfu_validation.o
    0x0003ccd8   0x0003ccd8   0x00000014   Code   RO         3659    i.queue_free        nrf_fstorage_sd.o
    0x0003ccec   0x0003ccec   0x0000009c   Code   RO         3660    i.queue_process     nrf_fstorage_sd.o
    0x0003cd88   0x0003cd88   0x00000024   Code   RO         3661    i.queue_start       nrf_fstorage_sd.o
    0x0003cdac   0x0003cdac   0x0000000e   Code   RO         3582    i.read              nrf_fstorage_nvmc.o
    0x0003cdba   0x0003cdba   0x0000000e   Code   RO         3662    i.read              nrf_fstorage_sd.o
    0x0003cdc8   0x0003cdc8   0x00000062   Code   RO         4337    i.read_raw_value    pb_decode.o
    0x0003ce2a   0x0003ce2a   0x00000020   Code   RO         1735    i.response_crc_add  nrf_dfu_ble.o
    0x0003ce4a   0x0003ce4a   0x00000002   PAD
    0x0003ce4c   0x0003ce4c   0x00000034   Code   RO         1736    i.response_send     nrf_dfu_ble.o
    0x0003ce80   0x0003ce80   0x00000004   Code   RO         3583    i.rmap              nrf_fstorage_nvmc.o
    0x0003ce84   0x0003ce84   0x00000004   Code   RO         3663    i.rmap              nrf_fstorage_sd.o
    0x0003ce88   0x0003ce88   0x00000054   Code   RO          789    i.sd_activate       nrf_bootloader_fw_activation.o
    0x0003cedc   0x0003cedc   0x00000044   Code   RO         2717    i.sd_req_check      nrf_dfu_ver_validation.o
    0x0003cf20   0x0003cf20   0x00000068   Code   RO         2718    i.sd_req_ok         nrf_dfu_ver_validation.o
    0x0003cf88   0x0003cf88   0x00000030   Code   RO         4089    i.sdh_request_observer_notify  nrf_sdh.o
    0x0003cfb8   0x0003cfb8   0x0000002c   Code   RO         4090    i.sdh_state_observer_notify  nrf_sdh.o
    0x0003cfe4   0x0003cfe4   0x00000014   Code   RO         2319    i.settings_backup   nrf_dfu_settings.o
    0x0003cff8   0x0003cff8   0x0000000a   Code   RO         2320    i.settings_crc_get  nrf_dfu_settings.o
    0x0003d002   0x0003d002   0x00000050   Code   RO         2321    i.settings_write    nrf_dfu_settings.o
    0x0003d052   0x0003d052   0x00000110   Code   RO         3916    i.sha256_final      sha256.o
    0x0003d162   0x0003d162   0x00000002   PAD
    0x0003d164   0x0003d164   0x00000054   Code   RO         3917    i.sha256_init       sha256.o
    0x0003d1b8   0x0003d1b8   0x0000012c   Code   RO         3918    i.sha256_transform  sha256.o
    0x0003d2e4   0x0003d2e4   0x00000054   Code   RO         3919    i.sha256_update     sha256.o
    0x0003d338   0x0003d338   0x00000040   Code   RO         4091    i.softdevice_evt_irq_disable  nrf_sdh.o
    0x0003d378   0x0003d378   0x00000058   Code   RO         4092    i.softdevices_evt_irq_enable  nrf_sdh.o
    0x0003d3d0   0x0003d3d0   0x000000c8   Code   RO         2576    i.stored_init_cmd_decode  nrf_dfu_validation.o
    0x0003d498   0x0003d498   0x00000060   Code   RO          705    i.timer_activate    nrf_bootloader_dfu_timers.o
    0x0003d4f8   0x0003d4f8   0x00000078   Code   RO          706    i.timer_init        nrf_bootloader_dfu_timers.o
    0x0003d570   0x0003d570   0x0000001a   Code   RO          707    i.timer_start       nrf_bootloader_dfu_timers.o
    0x0003d58a   0x0003d58a   0x00000002   PAD
    0x0003d58c   0x0003d58c   0x00000014   Code   RO          708    i.timer_stop        nrf_bootloader_dfu_timers.o
    0x0003d5a0   0x0003d5a0   0x00000012   Code   RO         1737    i.uint32_encode     nrf_dfu_ble.o
    0x0003d5b2   0x0003d5b2   0x00000002   PAD
    0x0003d5b4   0x0003d5b4   0x00000010   Code   RO         3584    i.uninit            nrf_fstorage_nvmc.o
    0x0003d5c4   0x0003d5c4   0x00000020   Code   RO         3664    i.uninit            nrf_fstorage_sd.o
    0x0003d5e4   0x0003d5e4   0x00000058   Code   RO         2577    i.update_data_size_get  nrf_dfu_validation.o
    0x0003d63c   0x0003d63c   0x00000020   Code   RO         1186    i.verify_context    nrf_crypto_hash.o
    0x0003d65c   0x0003d65c   0x0000003c   Code   RO          883    i.wdt_feed          nrf_bootloader_wdt.o
    0x0003d698   0x0003d698   0x00000004   Code   RO          884    i.wdt_feed_timer_handler  nrf_bootloader_wdt.o
    0x0003d69c   0x0003d69c   0x00000004   Code   RO         3585    i.wmap              nrf_fstorage_nvmc.o
    0x0003d6a0   0x0003d6a0   0x00000004   Code   RO         3665    i.wmap              nrf_fstorage_sd.o
    0x0003d6a4   0x0003d6a4   0x00000044   Code   RO         3586    i.write             nrf_fstorage_nvmc.o
    0x0003d6e8   0x0003d6e8   0x00000050   Code   RO         3666    i.write             nrf_fstorage_sd.o
    0x0003d738   0x0003d738   0x00000040   Data   RO            1    .constdata          dfu_public_key.o
    0x0003d778   0x0003d778   0x00000008   Data   RO          339    .constdata          boards.o
    0x0003d780   0x0003d780   0x00000006   Data   RO          709    .constdata          nrf_bootloader_dfu_timers.o
    0x0003d786   0x0003d786   0x00000002   PAD
    0x0003d788   0x0003d788   0x00000018   Data   RO         1439    .constdata          nrf_sw_backend_hash.o
    0x0003d7a0   0x0003d7a0   0x0000000c   Data   RO         1489    .constdata          micro_ecc_backend_ecc.o
    0x0003d7ac   0x0003d7ac   0x00000001   Data   RO         1668    .constdata          dfu-cc.pb.o
    0x0003d7ad   0x0003d7ad   0x00000003   PAD
    0x0003d7b0   0x0003d7b0   0x00000030   Data   RO         1669    .constdata          dfu-cc.pb.o
    0x0003d7e0   0x0003d7e0   0x00000030   Data   RO         1670    .constdata          dfu-cc.pb.o
    0x0003d810   0x0003d810   0x000000b0   Data   RO         1671    .constdata          dfu-cc.pb.o
    0x0003d8c0   0x0003d8c0   0x00000030   Data   RO         1672    .constdata          dfu-cc.pb.o
    0x0003d8f0   0x0003d8f0   0x00000040   Data   RO         1673    .constdata          dfu-cc.pb.o
    0x0003d930   0x0003d930   0x00000030   Data   RO         1674    .constdata          dfu-cc.pb.o
    0x0003d960   0x0003d960   0x00000118   Data   RO         1741    .constdata          nrf_dfu_ble.o
    0x0003da78   0x0003da78   0x00000010   Data   RO         1993    .constdata          nrf_dfu_mbr.o
    0x0003da88   0x0003da88   0x00000030   Data   RO         2045    .constdata          nrf_dfu_req_handler.o
    0x0003dab8   0x0003dab8   0x0000000c   Data   RO         3587    .constdata          nrf_fstorage_nvmc.o
    0x0003dac4   0x0003dac4   0x00000020   Data   RO         3588    .constdata          nrf_fstorage_nvmc.o
    0x0003dae4   0x0003dae4   0x00000010   Data   RO         3669    .constdata          nrf_fstorage_sd.o
    0x0003daf4   0x0003daf4   0x00000020   Data   RO         3670    .constdata          nrf_fstorage_sd.o
    0x0003db14   0x0003db14   0x00000100   Data   RO         3920    .constdata          sha256.o
    0x0003dc14   0x0003dc14   0x00000010   Data   RO         4093    .constdata          nrf_sdh.o
    0x0003dc24   0x0003dc24   0x00000028   Data   RO         4094    .constdata          nrf_sdh.o
    0x0003dc4c   0x0003dc4c   0x00000010   Data   RO         4095    .constdata          nrf_sdh.o
    0x0003dc5c   0x0003dc5c   0x00000010   Data   RO         4096    .constdata          nrf_sdh.o
    0x0003dc6c   0x0003dc6c   0x00000020   Data   RO         4201    .constdata          nrf_sdh_ble.o
    0x0003dc8c   0x0003dc8c   0x00000010   Data   RO         4202    .constdata          nrf_sdh_ble.o
    0x0003dc9c   0x0003dc9c   0x00000010   Data   RO         4252    .constdata          nrf_sdh_soc.o
    0x0003dcac   0x0003dcac   0x0000000c   Data   RO         4253    .constdata          nrf_sdh_soc.o
    0x0003dcb8   0x0003dcb8   0x00000024   Data   RO         4338    .constdata          pb_decode.o
    0x0003dcdc   0x0003dcdc   0x000000b0   Data   RO         4618    .rodata.curve_secp256r1  micro_ecc_lib_nrf52.lib(uECC.c.o)
    0x0003dd8c   0x0003dd8c   0x00000020   Data   RO         4663    Region$$Table       anon$$obj.o
    0x0003ddac   0x0003ddac   0x00000008   Data   RO         1744    dfu_trans           nrf_dfu_ble.o
    0x0003ddb4   0x0003ddb4   0x00000014   Data   RO         1745    nrf_balloc          nrf_dfu_ble.o
    0x0003ddc8   0x0003ddc8   0x00000008   Data   RO         1746    sdh_ble_observers2  nrf_dfu_ble.o
    0x0003ddd0   0x0003ddd0   0x00000008   Data   RO         3672    sdh_req_observers0  nrf_fstorage_sd.o
    0x0003ddd8   0x0003ddd8   0x00000008   Data   RO         3673    sdh_soc_observers0  nrf_fstorage_sd.o
    0x0003dde0   0x0003dde0   0x00000008   Data   RO         4204    sdh_stack_observers0  nrf_sdh_ble.o
    0x0003dde8   0x0003dde8   0x00000008   Data   RO         4254    sdh_stack_observers0  nrf_sdh_soc.o
    0x0003ddf0   0x0003ddf0   0x00000008   Data   RO         3674    sdh_state_observers0  nrf_fstorage_sd.o
    0x0003ddf8   0x0003ddf8   0x0000000c   Data   RO         4002    svc_data            nrf_dfu_svci_handler.o


    Execution Region RW_IRAM1 (Exec base: 0x20002ae8, Load base: 0x0003de04, Size: 0x00002df8, Max: 0x00005518, ABSOLUTE)

    Exec Addr    Load Addr    Size         Type   Attr      Idx    E Section Name        Object

    0x20002ae8   0x0003de04   0x00000008   Data   RW          528    .data               nrf_bootloader.o
    0x20002af0   0x0003de0c   0x00000004   Data   RW          663    .data               nrf_bootloader_app_start_final.o
    0x20002af4   0x0003de10   0x00000030   Data   RW          710    .data               nrf_bootloader_dfu_timers.o
    0x20002b24   0x0003de40   0x00000001   Data   RW          790    .data               nrf_bootloader_fw_activation.o
    0x20002b25   0x0003de41   0x00000001   Data   RW          885    .data               nrf_bootloader_wdt.o
    0x20002b26   0x0003de42   0x00000001   Data   RW         1264    .data               nrf_crypto_init.o
    0x20002b27   0x0003de43   0x00000001   PAD
    0x20002b28   0x0003de44   0x00000004   Data   RW         1691    .data               nrf_dfu.o
    0x20002b2c   0x0003de48   0x00000010   Data   RW         1742    .data               nrf_dfu_ble.o
    0x20002b3c   0x0003de58   0x00000008   Data   RW         1743    .data               nrf_dfu_ble.o
    0x20002b44   0x0003de60   0x00000001   Data   RW         1960    .data               nrf_dfu_handling_error.o
    0x20002b45   0x0003de61   0x00000003   PAD
    0x20002b48   0x0003de64   0x00000010   Data   RW         2046    .data               nrf_dfu_req_handler.o
    0x20002b58   0x0003de74   0x00000004   Data   RW         2326    .data               nrf_dfu_settings.o
    0x20002b5c   0x0003de78   0x00000010   Data   RW         2579    .data               nrf_dfu_validation.o
    0x20002b6c   0x0003de88   0x00000010   Data   RW         2986    .data               app_scheduler.o
    0x20002b7c   0x0003de98   0x00000004   Data   RW         3589    .data               nrf_fstorage_nvmc.o
    0x20002b80   0x0003de9c   0x00000008   Data   RW         3671    .data               nrf_fstorage_sd.o
    0x20002b88   0x0003dea4   0x00000003   Data   RW         4097    .data               nrf_sdh.o
    0x20002b8b   0x0003dea7   0x00000001   Data   RW         4203    .data               nrf_sdh_ble.o
    0x20002b8c   0x0003dea8   0x00000004   Data   RW         4501    .data               system_nrf52820.o
    0x20002b90   0x0003deac   0x00000014   Data   RW         1902    fs_data             nrf_dfu_flash.o
    0x20002ba4        -       0x00000420   Zero   RW          526    .bss                nrf_bootloader.o
    0x20002fc4        -       0x00000050   Zero   RW         1738    .bss                nrf_dfu_ble.o
    0x20003014        -       0x00000011   Zero   RW         1739    .bss                nrf_dfu_ble.o
    0x20003025   0x0003dec0   0x00000003   PAD
    0x20003028        -       0x00001034   Zero   RW         1740    .bss                nrf_dfu_ble.o
    0x2000405c        -       0x00000a80   Zero   RW         2325    .bss                nrf_dfu_settings.o
    0x20004adc        -       0x000003f4   Zero   RW         2578    .bss                nrf_dfu_validation.o
    0x20004ed0        -       0x0000000c   Zero   RW         3043    .bss                app_util_platform.o
    0x20004edc        -       0x00000010   Zero   RW         3667    .bss                nrf_fstorage_sd.o
    0x20004eec        -       0x000001f0   Zero   RW         3668    .bss                nrf_fstorage_sd.o
    0x200050dc   0x0003dec0   0x00000004   PAD
    0x200050e0        -       0x00000800   Zero   RW         4489    STACK               arm_startup_nrf52820.o



  Load Region LR$$.ARM.__AT_0x0003E000 (Base: 0x0003e000, Size: 0x00000000, Max: 0x00001000, ABSOLUTE)

    Execution Region ER$$.ARM.__AT_0x0003E000 (Exec base: 0x0003e000, Load base: 0x0003e000, Size: 0x00001000, Max: 0x00001000, ABSOLUTE, UNINIT)

    Exec Addr    Load Addr    Size         Type   Attr      Idx    E Section Name        Object

    0x0003e000        -       0x00001000   Zero   RW         2322    .ARM.__AT_0x0003E000  nrf_dfu_settings.o



  Load Region LR$$.ARM.__AT_0x0003F000 (Base: 0x0003f000, Size: 0x00000000, Max: 0x00001000, ABSOLUTE)

    Execution Region ER$$.ARM.__AT_0x0003F000 (Exec base: 0x0003f000, Load base: 0x0003f000, Size: 0x00001000, Max: 0x00001000, ABSOLUTE, UNINIT)

    Exec Addr    Load Addr    Size         Type   Attr      Idx    E Section Name        Object

    0x0003f000        -       0x00001000   Zero   RW         2323    .ARM.__AT_0x0003F000  nrf_dfu_settings.o



  Load Region LR$$.ARM.__AT_0x10001014 (Base: 0x10001014, Size: 0x00000004, Max: 0x00000004, ABSOLUTE)

    Execution Region ER$$.ARM.__AT_0x10001014 (Exec base: 0x10001014, Load base: 0x10001014, Size: 0x00000004, Max: 0x00000004, ABSOLUTE, UNINIT)

    Exec Addr    Load Addr    Size         Type   Attr      Idx    E Section Name        Object

    0x10001014   0x10001014   0x00000004   Data   RW          841    .ARM.__AT_0x10001014  nrf_bootloader_info.o



  Load Region LR$$.ARM.__AT_0x10001018 (Base: 0x10001018, Size: 0x00000004, Max: 0x00000004, ABSOLUTE)

    Execution Region ER$$.ARM.__AT_0x10001018 (Exec base: 0x10001018, Load base: 0x10001018, Size: 0x00000004, Max: 0x00000004, ABSOLUTE, UNINIT)

    Exec Addr    Load Addr    Size         Type   Attr      Idx    E Section Name        Object

    0x10001018   0x10001018   0x00000004   Data   RO         2324    .ARM.__AT_0x10001018  nrf_dfu_settings.o


==============================================================================

Image component sizes


      Code (inc. data)   RO Data    RW Data    ZI Data      Debug   Object Name

       268         16          0         16          0      41865   app_scheduler.o
       124         14          0          0         12      10534   app_util_platform.o
        36          8        512          0       2048        900   arm_startup_nrf52820.o
         8          0          0          0          0      28018   ble_srv_common.o
       192         16          8          0          0       9105   boards.o
        60          6          0          0          0       1500   crc32.o
         0          0        433          0          0       1522   dfu-cc.pb.o
         0          0         64          0          0       5337   dfu_public_key.o
       156         28          0          0          0      97965   main.o
        22          0         12          0          0      25693   micro_ecc_backend_ecc.o
        86          0          0          0          0       2342   micro_ecc_backend_ecdsa.o
       342          0          0          0          0       8490   nrf_atfifo.o
       260          0          0          0          0       5416   nrf_atomic.o
       164          0          0          0          0       3532   nrf_balloc.o
       650         98          0          8       1056      28270   nrf_bootloader.o
        36          0          0          0          0        727   nrf_bootloader_app_start.o
       160         16          0          4          0       8819   nrf_bootloader_app_start_final.o
       450         56          6         48          0      47194   nrf_bootloader_dfu_timers.o
       504         48          0          1          0       6741   nrf_bootloader_fw_activation.o
        48          6          0          4          0       1114   nrf_bootloader_info.o
       192         34          0          1          0      36192   nrf_bootloader_wdt.o
       124          4          0          0          0      30476   nrf_crypto_ecc.o
        76          4          0          0          0      38013   nrf_crypto_ecdsa.o
       230         12          0          0          0      10409   nrf_crypto_hash.o
        64         14          0          1          0       3145   nrf_crypto_init.o
        94          0          0          0          0       3890   nrf_crypto_shared.o
        84         14          0          4          0       3227   nrf_dfu.o
      1726        154        316         24       4245     114806   nrf_dfu_ble.o
        80         22          0         20          0       5867   nrf_dfu_flash.o
        28         10          0          1          0       1660   nrf_dfu_handling_error.o
        58          6         16          0          0       8698   nrf_dfu_mbr.o
       906        112         48         16          0      78024   nrf_dfu_req_handler.o
       542         58          4          4      10880      11397   nrf_dfu_settings.o
       164         20          0          0          0       4392   nrf_dfu_settings_svci.o
       124         16         12          0          0       6315   nrf_dfu_svci_handler.o
       104         18          0          0          0       2680   nrf_dfu_transport.o
       250         28          0          0          0       4855   nrf_dfu_utils.o
      1876        166          0         16       1012      24339   nrf_dfu_validation.o
       300         14          0          0          0      10281   nrf_dfu_ver_validation.o
       230         10          0          0          0       6032   nrf_fstorage.o
       260         20         44          4          0       9596   nrf_fstorage_nvmc.o
       794         82         72          8        512      16967   nrf_fstorage_sd.o
       164         28          0          0          0       2647   nrf_nvmc.o
       560         60         88          3          0      44820   nrf_sdh.o
       292         18         56          1          0       7239   nrf_sdh_ble.o
        60          4         36          0          0       2340   nrf_sdh_soc.o
        78          0          0          0          0       2692   nrf_section_iter.o
       112         10          0          0          0       2469   nrf_svc_handler.o
        48          0         24          0          0       5592   nrf_sw_backend_hash.o
       206          0          0          0          0       3464   pb_common.o
      2322         14         36          0          0      35998   pb_decode.o
       740         40        256          0          0       6656   sha256.o
       364         42          0          4          0      10859   system_nrf52820.o

    ----------------------------------------------------------------------
     16852       1346       2080        192      19772     891121   Object Totals
         0          0         32          0          0          0   (incl. Generated)
        34          0          5          4          7          0   (incl. Padding)

    ----------------------------------------------------------------------

      Code (inc. data)   RO Data    RW Data    ZI Data      Debug   Library Member Name

         0          0          0          0          0          0   entry.o
         0          0          0          0          0          0   entry10a.o
         0          0          0          0          0          0   entry11a.o
         8          4          0          0          0          0   entry2.o
         4          0          0          0          0          0   entry5.o
         0          0          0          0          0          0   entry7b.o
         0          0          0          0          0          0   entry8b.o
         8          4          0          0          0          0   entry9a.o
        30          0          0          0          0          0   handlers.o
        36          8          0          0          0         68   init.o
        30          0          0          0          0         68   llshl.o
        26          0          0          0          0         80   memcmp.o
        36          0          0          0          0         68   memcpya.o
        36          0          0          0          0        108   memseta.o
      4732         12        176          0          0      44068   uECC.c.o

    ----------------------------------------------------------------------
      4964         28        176          0          0      44460   Library Totals
        18          0          0          0          0          0   (incl. Padding)

    ----------------------------------------------------------------------

      Code (inc. data)   RO Data    RW Data    ZI Data      Debug   Library Name

       214         16          0          0          0        392   mc_w.l
      4732         12        176          0          0      44068   micro_ecc_lib_nrf52.lib

    ----------------------------------------------------------------------
      4964         28        176          0          0      44460   Library Totals

    ----------------------------------------------------------------------

==============================================================================


      Code (inc. data)   RO Data    RW Data    ZI Data      Debug   

     21816       1374       2256        192      19772     922213   Grand Totals
     21816       1374       2256        192      19772     922213   ELF Image Totals
     21816       1374       2256        192          0          0   ROM Totals

==============================================================================

    Total RO  Size (Code + RO Data)                24072 (  23.51kB)
    Total RW  Size (RW Data + ZI Data)             19964 (  19.50kB)
    Total ROM Size (Code + RO Data + RW Data)      24264 (  23.70kB)

==============================================================================

